
main:     file format pei-i386


Disassembly of section .text:

00401000 <_WinMainCRTStartup>:
  401000:	55                   	push   %ebp
  401001:	89 e5                	mov    %esp,%ebp
  401003:	83 ec 18             	sub    $0x18,%esp
  401006:	83 e4 f0             	and    $0xfffffff0,%esp
  401009:	c7 04 24 90 10 40 00 	movl   $0x401090,(%esp)
  401010:	e8 1b 01 00 00       	call   401130 <_cygwin_crt0>
  401015:	c7 44 24 08 00 00 00 	movl   $0x0,0x8(%esp)
  40101c:	00 
  40101d:	c7 44 24 04 00 00 00 	movl   $0x0,0x4(%esp)
  401024:	00 
  401025:	c7 04 24 00 00 00 00 	movl   $0x0,(%esp)
  40102c:	e8 2f 01 00 00       	call   401160 <_cygwin_premain0>
  401031:	c7 44 24 08 00 00 00 	movl   $0x0,0x8(%esp)
  401038:	00 
  401039:	c7 44 24 04 00 00 00 	movl   $0x0,0x4(%esp)
  401040:	00 
  401041:	c7 04 24 00 00 00 00 	movl   $0x0,(%esp)
  401048:	e8 23 01 00 00       	call   401170 <_cygwin_premain1>
  40104d:	c7 44 24 08 00 00 00 	movl   $0x0,0x8(%esp)
  401054:	00 
  401055:	c7 44 24 04 00 00 00 	movl   $0x0,0x4(%esp)
  40105c:	00 
  40105d:	c7 04 24 00 00 00 00 	movl   $0x0,(%esp)
  401064:	e8 17 01 00 00       	call   401180 <_cygwin_premain2>
  401069:	c7 44 24 08 00 00 00 	movl   $0x0,0x8(%esp)
  401070:	00 
  401071:	c7 44 24 04 00 00 00 	movl   $0x0,0x4(%esp)
  401078:	00 
  401079:	c7 04 24 00 00 00 00 	movl   $0x0,(%esp)
  401080:	e8 0b 01 00 00       	call   401190 <_cygwin_premain3>
  401085:	c9                   	leave  
  401086:	c3                   	ret    
  401087:	90                   	nop
  401088:	90                   	nop
  401089:	90                   	nop
  40108a:	90                   	nop
  40108b:	90                   	nop
  40108c:	90                   	nop
  40108d:	90                   	nop
  40108e:	90                   	nop
  40108f:	90                   	nop

00401090 <_main>:
#include <stdio.h>
#include "add.h"
#include "sub.h"

int main(void)
{
  401090:	55                   	push   %ebp
  401091:	89 e5                	mov    %esp,%ebp
  401093:	83 ec 28             	sub    $0x28,%esp
  401096:	83 e4 f0             	and    $0xfffffff0,%esp
  401099:	b8 00 00 00 00       	mov    $0x0,%eax
  40109e:	83 c0 0f             	add    $0xf,%eax
  4010a1:	83 c0 0f             	add    $0xf,%eax
  4010a4:	c1 e8 04             	shr    $0x4,%eax
  4010a7:	c1 e0 04             	shl    $0x4,%eax
  4010aa:	89 45 ec             	mov    %eax,-0x14(%ebp)
  4010ad:	8b 45 ec             	mov    -0x14(%ebp),%eax
  4010b0:	e8 47 00 00 00       	call   4010fc <___chkstk>
  4010b5:	e8 e6 00 00 00       	call   4011a0 <___main>
    int a = 2;
  4010ba:	c7 45 fc 02 00 00 00 	movl   $0x2,-0x4(%ebp)
    int b = 3;
  4010c1:	c7 45 f8 03 00 00 00 	movl   $0x3,-0x8(%ebp)
    int c = add(a,b);
  4010c8:	8b 45 f8             	mov    -0x8(%ebp),%eax
  4010cb:	89 44 24 04          	mov    %eax,0x4(%esp)
  4010cf:	8b 45 fc             	mov    -0x4(%ebp),%eax
  4010d2:	89 04 24             	mov    %eax,(%esp)
  4010d5:	e8 b6 05 00 00       	call   401690 <_add>
  4010da:	89 45 f4             	mov    %eax,-0xc(%ebp)
    int d = sub(a,b);
  4010dd:	8b 45 f8             	mov    -0x8(%ebp),%eax
  4010e0:	89 44 24 04          	mov    %eax,0x4(%esp)
  4010e4:	8b 45 fc             	mov    -0x4(%ebp),%eax
  4010e7:	89 04 24             	mov    %eax,(%esp)
  4010ea:	e8 a9 05 00 00       	call   401698 <_sub>
  4010ef:	89 45 f0             	mov    %eax,-0x10(%ebp)

#ifdef _DEBUG
    printf("c=%d\n", c);
    printf("d=%d\n", d);
#endif
    return 0;
  4010f2:	b8 00 00 00 00       	mov    $0x0,%eax
}
  4010f7:	c9                   	leave  
  4010f8:	c3                   	ret    
  4010f9:	90                   	nop
  4010fa:	90                   	nop
  4010fb:	90                   	nop

004010fc <___chkstk>:
  4010fc:	51                   	push   %ecx
  4010fd:	89 e1                	mov    %esp,%ecx
  4010ff:	83 c1 08             	add    $0x8,%ecx

00401102 <probe>:
  401102:	3d 00 10 00 00       	cmp    $0x1000,%eax
  401107:	72 10                	jb     401119 <done>
  401109:	81 e9 00 10 00 00    	sub    $0x1000,%ecx
  40110f:	83 09 00             	orl    $0x0,(%ecx)
  401112:	2d 00 10 00 00       	sub    $0x1000,%eax
  401117:	eb e9                	jmp    401102 <probe>

00401119 <done>:
  401119:	29 c1                	sub    %eax,%ecx
  40111b:	83 09 00             	orl    $0x0,(%ecx)
  40111e:	89 e0                	mov    %esp,%eax
  401120:	89 cc                	mov    %ecx,%esp
  401122:	8b 08                	mov    (%eax),%ecx
  401124:	8b 40 04             	mov    0x4(%eax),%eax
  401127:	ff e0                	jmp    *%eax
  401129:	90                   	nop
  40112a:	90                   	nop
  40112b:	90                   	nop
  40112c:	00 00                	add    %al,(%eax)
	...

00401130 <_cygwin_crt0>:
  401130:	55                   	push   %ebp
  401131:	89 e5                	mov    %esp,%ebp
  401133:	83 ec 08             	sub    $0x8,%esp
  401136:	8b 45 08             	mov    0x8(%ebp),%eax
  401139:	c7 44 24 04 00 00 00 	movl   $0x0,0x4(%esp)
  401140:	00 
  401141:	89 04 24             	mov    %eax,(%esp)
  401144:	e8 67 00 00 00       	call   4011b0 <__cygwin_crt0_common@8>
  401149:	83 ec 08             	sub    $0x8,%esp
  40114c:	ff 15 94 40 40 00    	call   *0x404094
  401152:	90                   	nop
  401153:	90                   	nop
  401154:	90                   	nop
  401155:	90                   	nop
  401156:	90                   	nop
  401157:	90                   	nop
  401158:	90                   	nop
  401159:	90                   	nop
  40115a:	90                   	nop
  40115b:	90                   	nop
  40115c:	90                   	nop
  40115d:	90                   	nop
  40115e:	90                   	nop
  40115f:	90                   	nop

00401160 <_cygwin_premain0>:
  401160:	55                   	push   %ebp
  401161:	89 e5                	mov    %esp,%ebp
  401163:	5d                   	pop    %ebp
  401164:	c3                   	ret    
  401165:	90                   	nop
  401166:	90                   	nop
  401167:	90                   	nop
  401168:	90                   	nop
  401169:	90                   	nop
  40116a:	90                   	nop
  40116b:	90                   	nop
  40116c:	90                   	nop
  40116d:	90                   	nop
  40116e:	90                   	nop
  40116f:	90                   	nop

00401170 <_cygwin_premain1>:
  401170:	55                   	push   %ebp
  401171:	89 e5                	mov    %esp,%ebp
  401173:	5d                   	pop    %ebp
  401174:	c3                   	ret    
  401175:	90                   	nop
  401176:	90                   	nop
  401177:	90                   	nop
  401178:	90                   	nop
  401179:	90                   	nop
  40117a:	90                   	nop
  40117b:	90                   	nop
  40117c:	90                   	nop
  40117d:	90                   	nop
  40117e:	90                   	nop
  40117f:	90                   	nop

00401180 <_cygwin_premain2>:
  401180:	55                   	push   %ebp
  401181:	89 e5                	mov    %esp,%ebp
  401183:	5d                   	pop    %ebp
  401184:	c3                   	ret    
  401185:	90                   	nop
  401186:	90                   	nop
  401187:	90                   	nop
  401188:	90                   	nop
  401189:	90                   	nop
  40118a:	90                   	nop
  40118b:	90                   	nop
  40118c:	90                   	nop
  40118d:	90                   	nop
  40118e:	90                   	nop
  40118f:	90                   	nop

00401190 <_cygwin_premain3>:
  401190:	55                   	push   %ebp
  401191:	89 e5                	mov    %esp,%ebp
  401193:	5d                   	pop    %ebp
  401194:	c3                   	ret    
  401195:	90                   	nop
  401196:	90                   	nop
  401197:	90                   	nop
  401198:	90                   	nop
  401199:	90                   	nop
  40119a:	90                   	nop
  40119b:	90                   	nop
  40119c:	90                   	nop
  40119d:	90                   	nop
  40119e:	90                   	nop
  40119f:	90                   	nop

004011a0 <___main>:
  4011a0:	ff 25 90 40 40 00    	jmp    *0x404090
  4011a6:	90                   	nop
  4011a7:	90                   	nop
	...

004011b0 <__cygwin_crt0_common@8>:
  4011b0:	55                   	push   %ebp
  4011b1:	89 e5                	mov    %esp,%ebp
  4011b3:	56                   	push   %esi
  4011b4:	53                   	push   %ebx
  4011b5:	83 ec 10             	sub    $0x10,%esp
  4011b8:	8b 5d 0c             	mov    0xc(%ebp),%ebx
  4011bb:	8b 75 08             	mov    0x8(%ebp),%esi
  4011be:	c7 04 24 08 00 00 00 	movl   $0x8,(%esp)
  4011c5:	e8 16 04 00 00       	call   4015e0 <_cygwin_internal>
  4011ca:	85 db                	test   %ebx,%ebx
  4011cc:	89 c1                	mov    %eax,%ecx
  4011ce:	0f 84 bc 01 00 00    	je     401390 <__cygwin_crt0_common@8+0x1e0>
  4011d4:	a1 98 40 40 00       	mov    0x404098,%eax
  4011d9:	85 c9                	test   %ecx,%ecx
  4011db:	c7 43 04 a8 00 00 00 	movl   $0xa8,0x4(%ebx)
  4011e2:	c7 43 08 ef 03 00 00 	movl   $0x3ef,0x8(%ebx)
  4011e9:	c7 43 0c 09 00 00 00 	movl   $0x9,0xc(%ebx)
  4011f0:	89 43 10             	mov    %eax,0x10(%ebx)
  4011f3:	8b 45 00             	mov    0x0(%ebp),%eax
  4011f6:	c7 83 80 00 00 00 00 	movl   $0x0,0x80(%ebx)
  4011fd:	00 00 00 
  401200:	c7 83 84 00 00 00 ed 	movl   $0xed,0x84(%ebx)
  401207:	00 00 00 
  40120a:	c7 43 2c a0 16 40 00 	movl   $0x4016a0,0x2c(%ebx)
  401211:	c7 43 30 a8 16 40 00 	movl   $0x4016a8,0x30(%ebx)
  401218:	c7 43 14 00 30 40 00 	movl   $0x403000,0x14(%ebx)
  40121f:	89 73 28             	mov    %esi,0x28(%ebx)
  401222:	c7 43 48 60 11 40 00 	movl   $0x401160,0x48(%ebx)
  401229:	c7 43 4c 70 11 40 00 	movl   $0x401170,0x4c(%ebx)
  401230:	c7 43 50 80 11 40 00 	movl   $0x401180,0x50(%ebx)
  401237:	c7 43 54 90 11 40 00 	movl   $0x401190,0x54(%ebx)
  40123e:	c7 43 24 04 30 40 00 	movl   $0x403004,0x24(%ebx)
  401245:	89 03                	mov    %eax,(%ebx)
  401247:	c7 43 18 00 16 40 00 	movl   $0x401600,0x18(%ebx)
  40124e:	c7 43 1c 08 16 40 00 	movl   $0x401608,0x1c(%ebx)
  401255:	c7 43 20 10 16 40 00 	movl   $0x401610,0x20(%ebx)
  40125c:	c7 43 44 18 16 40 00 	movl   $0x401618,0x44(%ebx)
  401263:	0f 84 c1 00 00 00    	je     40132a <__cygwin_crt0_common@8+0x17a>
  401269:	8b 51 78             	mov    0x78(%ecx),%edx
  40126c:	85 d2                	test   %edx,%edx
  40126e:	0f 84 b6 00 00 00    	je     40132a <__cygwin_crt0_common@8+0x17a>
  401274:	a1 08 30 40 00       	mov    0x403008,%eax
  401279:	85 c0                	test   %eax,%eax
  40127b:	0f 85 a9 00 00 00    	jne    40132a <__cygwin_crt0_common@8+0x17a>
  401281:	a1 00 20 40 00       	mov    0x402000,%eax
  401286:	85 c0                	test   %eax,%eax
  401288:	0f 84 12 02 00 00    	je     4014a0 <__cygwin_crt0_common@8+0x2f0>
  40128e:	a1 04 20 40 00       	mov    0x402004,%eax
  401293:	85 c0                	test   %eax,%eax
  401295:	0f 84 f5 01 00 00    	je     401490 <__cygwin_crt0_common@8+0x2e0>
  40129b:	a1 08 20 40 00       	mov    0x402008,%eax
  4012a0:	85 c0                	test   %eax,%eax
  4012a2:	0f 84 d8 01 00 00    	je     401480 <__cygwin_crt0_common@8+0x2d0>
  4012a8:	a1 0c 20 40 00       	mov    0x40200c,%eax
  4012ad:	85 c0                	test   %eax,%eax
  4012af:	0f 84 bb 01 00 00    	je     401470 <__cygwin_crt0_common@8+0x2c0>
  4012b5:	a1 10 20 40 00       	mov    0x402010,%eax
  4012ba:	85 c0                	test   %eax,%eax
  4012bc:	0f 84 9e 01 00 00    	je     401460 <__cygwin_crt0_common@8+0x2b0>
  4012c2:	8b 35 14 20 40 00    	mov    0x402014,%esi
  4012c8:	85 f6                	test   %esi,%esi
  4012ca:	0f 84 80 01 00 00    	je     401450 <__cygwin_crt0_common@8+0x2a0>
  4012d0:	8b 0d 18 20 40 00    	mov    0x402018,%ecx
  4012d6:	85 c9                	test   %ecx,%ecx
  4012d8:	0f 84 62 01 00 00    	je     401440 <__cygwin_crt0_common@8+0x290>
  4012de:	a1 1c 20 40 00       	mov    0x40201c,%eax
  4012e3:	85 c0                	test   %eax,%eax
  4012e5:	0f 84 47 01 00 00    	je     401432 <__cygwin_crt0_common@8+0x282>
  4012eb:	a1 00 20 40 00       	mov    0x402000,%eax
  4012f0:	89 02                	mov    %eax,(%edx)
  4012f2:	a1 04 20 40 00       	mov    0x402004,%eax
  4012f7:	89 42 04             	mov    %eax,0x4(%edx)
  4012fa:	a1 08 20 40 00       	mov    0x402008,%eax
  4012ff:	89 42 08             	mov    %eax,0x8(%edx)
  401302:	a1 0c 20 40 00       	mov    0x40200c,%eax
  401307:	89 42 0c             	mov    %eax,0xc(%edx)
  40130a:	a1 10 20 40 00       	mov    0x402010,%eax
  40130f:	89 42 10             	mov    %eax,0x10(%edx)
  401312:	a1 14 20 40 00       	mov    0x402014,%eax
  401317:	89 42 14             	mov    %eax,0x14(%edx)
  40131a:	a1 18 20 40 00       	mov    0x402018,%eax
  40131f:	89 42 18             	mov    %eax,0x18(%edx)
  401322:	a1 1c 20 40 00       	mov    0x40201c,%eax
  401327:	89 42 1c             	mov    %eax,0x1c(%edx)
  40132a:	c7 04 24 00 00 00 00 	movl   $0x0,(%esp)
  401331:	e8 52 03 00 00       	call   401688 <_GetModuleHandleA@4>
  401336:	c7 43 34 00 20 40 00 	movl   $0x402000,0x34(%ebx)
  40133d:	c7 43 38 20 20 40 00 	movl   $0x402020,0x38(%ebx)
  401344:	c7 43 3c 00 30 40 00 	movl   $0x403000,0x3c(%ebx)
  40134b:	c7 43 40 20 31 40 00 	movl   $0x403120,0x40(%ebx)
  401352:	c7 83 94 00 00 00 00 	movl   $0x403000,0x94(%ebx)
  401359:	30 40 00 
  40135c:	89 43 7c             	mov    %eax,0x7c(%ebx)
  40135f:	83 ec 04             	sub    $0x4,%esp
  401362:	c7 83 98 00 00 00 00 	movl   $0x403000,0x98(%ebx)
  401369:	30 40 00 
  40136c:	c7 83 9c 00 00 00 00 	movl   $0x400000,0x9c(%ebx)
  401373:	00 40 00 
  401376:	e8 75 02 00 00       	call   4015f0 <__pei386_runtime_relocator>
  40137b:	8d 65 f8             	lea    -0x8(%ebp),%esp
  40137e:	b8 01 00 00 00       	mov    $0x1,%eax
  401383:	5b                   	pop    %ebx
  401384:	5e                   	pop    %esi
  401385:	5d                   	pop    %ebp
  401386:	c2 08 00             	ret    $0x8
  401389:	8d b4 26 00 00 00 00 	lea    0x0(%esi,%eiz,1),%esi
  401390:	c7 40 04 a8 00 00 00 	movl   $0xa8,0x4(%eax)
  401397:	8b 15 98 40 40 00    	mov    0x404098,%edx
  40139d:	85 c9                	test   %ecx,%ecx
  40139f:	c7 40 08 ef 03 00 00 	movl   $0x3ef,0x8(%eax)
  4013a6:	89 cb                	mov    %ecx,%ebx
  4013a8:	c7 40 0c 09 00 00 00 	movl   $0x9,0xc(%eax)
  4013af:	c7 80 80 00 00 00 00 	movl   $0x0,0x80(%eax)
  4013b6:	00 00 00 
  4013b9:	c7 80 84 00 00 00 ed 	movl   $0xed,0x84(%eax)
  4013c0:	00 00 00 
  4013c3:	c7 40 2c a0 16 40 00 	movl   $0x4016a0,0x2c(%eax)
  4013ca:	c7 40 30 a8 16 40 00 	movl   $0x4016a8,0x30(%eax)
  4013d1:	c7 40 14 00 30 40 00 	movl   $0x403000,0x14(%eax)
  4013d8:	8b 80 a4 00 00 00    	mov    0xa4(%eax),%eax
  4013de:	89 71 28             	mov    %esi,0x28(%ecx)
  4013e1:	c7 41 48 60 11 40 00 	movl   $0x401160,0x48(%ecx)
  4013e8:	c7 41 4c 70 11 40 00 	movl   $0x401170,0x4c(%ecx)
  4013ef:	89 02                	mov    %eax,(%edx)
  4013f1:	8b 45 00             	mov    0x0(%ebp),%eax
  4013f4:	c7 41 50 80 11 40 00 	movl   $0x401180,0x50(%ecx)
  4013fb:	c7 41 54 90 11 40 00 	movl   $0x401190,0x54(%ecx)
  401402:	c7 41 24 04 30 40 00 	movl   $0x403004,0x24(%ecx)
  401409:	89 01                	mov    %eax,(%ecx)
  40140b:	c7 41 18 00 16 40 00 	movl   $0x401600,0x18(%ecx)
  401412:	c7 41 1c 08 16 40 00 	movl   $0x401608,0x1c(%ecx)
  401419:	c7 41 20 10 16 40 00 	movl   $0x401610,0x20(%ecx)
  401420:	c7 41 44 18 16 40 00 	movl   $0x401618,0x44(%ecx)
  401427:	0f 85 3c fe ff ff    	jne    401269 <__cygwin_crt0_common@8+0xb9>
  40142d:	e9 f8 fe ff ff       	jmp    40132a <__cygwin_crt0_common@8+0x17a>
  401432:	8b 42 1c             	mov    0x1c(%edx),%eax
  401435:	a3 1c 20 40 00       	mov    %eax,0x40201c
  40143a:	e9 ac fe ff ff       	jmp    4012eb <__cygwin_crt0_common@8+0x13b>
  40143f:	90                   	nop
  401440:	8b 42 18             	mov    0x18(%edx),%eax
  401443:	a3 18 20 40 00       	mov    %eax,0x402018
  401448:	e9 91 fe ff ff       	jmp    4012de <__cygwin_crt0_common@8+0x12e>
  40144d:	8d 76 00             	lea    0x0(%esi),%esi
  401450:	8b 42 14             	mov    0x14(%edx),%eax
  401453:	a3 14 20 40 00       	mov    %eax,0x402014
  401458:	e9 73 fe ff ff       	jmp    4012d0 <__cygwin_crt0_common@8+0x120>
  40145d:	8d 76 00             	lea    0x0(%esi),%esi
  401460:	8b 42 10             	mov    0x10(%edx),%eax
  401463:	a3 10 20 40 00       	mov    %eax,0x402010
  401468:	e9 55 fe ff ff       	jmp    4012c2 <__cygwin_crt0_common@8+0x112>
  40146d:	8d 76 00             	lea    0x0(%esi),%esi
  401470:	8b 42 0c             	mov    0xc(%edx),%eax
  401473:	a3 0c 20 40 00       	mov    %eax,0x40200c
  401478:	e9 38 fe ff ff       	jmp    4012b5 <__cygwin_crt0_common@8+0x105>
  40147d:	8d 76 00             	lea    0x0(%esi),%esi
  401480:	8b 42 08             	mov    0x8(%edx),%eax
  401483:	a3 08 20 40 00       	mov    %eax,0x402008
  401488:	e9 1b fe ff ff       	jmp    4012a8 <__cygwin_crt0_common@8+0xf8>
  40148d:	8d 76 00             	lea    0x0(%esi),%esi
  401490:	8b 42 04             	mov    0x4(%edx),%eax
  401493:	a3 04 20 40 00       	mov    %eax,0x402004
  401498:	e9 fe fd ff ff       	jmp    40129b <__cygwin_crt0_common@8+0xeb>
  40149d:	8d 76 00             	lea    0x0(%esi),%esi
  4014a0:	8b 02                	mov    (%edx),%eax
  4014a2:	a3 00 20 40 00       	mov    %eax,0x402000
  4014a7:	e9 e2 fd ff ff       	jmp    40128e <__cygwin_crt0_common@8+0xde>
  4014ac:	90                   	nop
  4014ad:	90                   	nop
  4014ae:	90                   	nop
  4014af:	90                   	nop

004014b0 <___dllMain>:
  4014b0:	55                   	push   %ebp
  4014b1:	89 e5                	mov    %esp,%ebp
  4014b3:	83 ec 18             	sub    $0x18,%esp
  4014b6:	a1 30 30 40 00       	mov    0x403030,%eax
  4014bb:	89 44 24 08          	mov    %eax,0x8(%esp)
  4014bf:	a1 20 30 40 00       	mov    0x403020,%eax
  4014c4:	89 44 24 04          	mov    %eax,0x4(%esp)
  4014c8:	a1 10 30 40 00       	mov    0x403010,%eax
  4014cd:	89 04 24             	mov    %eax,(%esp)
  4014d0:	e8 9b 01 00 00       	call   401670 <_DllMain@12>
  4014d5:	83 ec 0c             	sub    $0xc,%esp
  4014d8:	c9                   	leave  
  4014d9:	c3                   	ret    
  4014da:	8d b6 00 00 00 00    	lea    0x0(%esi),%esi

004014e0 <__cygwin_dll_entry@12>:
  4014e0:	55                   	push   %ebp
  4014e1:	89 e5                	mov    %esp,%ebp
  4014e3:	53                   	push   %ebx
  4014e4:	83 ec 14             	sub    $0x14,%esp
  4014e7:	8b 45 0c             	mov    0xc(%ebp),%eax
  4014ea:	8b 4d 08             	mov    0x8(%ebp),%ecx
  4014ed:	8b 55 10             	mov    0x10(%ebp),%edx
  4014f0:	83 f8 01             	cmp    $0x1,%eax
  4014f3:	0f 84 87 00 00 00    	je     401580 <__cygwin_dll_entry@12+0xa0>
  4014f9:	72 18                	jb     401513 <__cygwin_dll_entry@12+0x33>
  4014fb:	83 f8 02             	cmp    $0x2,%eax
  4014fe:	74 66                	je     401566 <__cygwin_dll_entry@12+0x86>
  401500:	83 f8 03             	cmp    $0x3,%eax
  401503:	bb 01 00 00 00       	mov    $0x1,%ebx
  401508:	74 46                	je     401550 <__cygwin_dll_entry@12+0x70>
  40150a:	89 d8                	mov    %ebx,%eax
  40150c:	8b 5d fc             	mov    -0x4(%ebp),%ebx
  40150f:	c9                   	leave  
  401510:	c2 0c 00             	ret    $0xc
  401513:	89 54 24 08          	mov    %edx,0x8(%esp)
  401517:	c7 44 24 04 00 00 00 	movl   $0x0,0x4(%esp)
  40151e:	00 
  40151f:	89 0c 24             	mov    %ecx,(%esp)
  401522:	e8 49 01 00 00       	call   401670 <_DllMain@12>
  401527:	83 ec 0c             	sub    $0xc,%esp
  40152a:	85 c0                	test   %eax,%eax
  40152c:	89 c3                	mov    %eax,%ebx
  40152e:	74 da                	je     40150a <__cygwin_dll_entry@12+0x2a>
  401530:	a1 40 30 40 00       	mov    0x403040,%eax
  401535:	89 04 24             	mov    %eax,(%esp)
  401538:	e8 23 01 00 00       	call   401660 <_cygwin_detach_dll>
  40153d:	c7 05 40 30 40 00 ff 	movl   $0xffffffff,0x403040
  401544:	ff ff ff 
  401547:	eb c1                	jmp    40150a <__cygwin_dll_entry@12+0x2a>
  401549:	8d b4 26 00 00 00 00 	lea    0x0(%esi,%eiz,1),%esi
  401550:	89 55 10             	mov    %edx,0x10(%ebp)
  401553:	8b 5d fc             	mov    -0x4(%ebp),%ebx
  401556:	c7 45 0c 03 00 00 00 	movl   $0x3,0xc(%ebp)
  40155d:	89 4d 08             	mov    %ecx,0x8(%ebp)
  401560:	c9                   	leave  
  401561:	e9 0a 01 00 00       	jmp    401670 <_DllMain@12>
  401566:	89 55 10             	mov    %edx,0x10(%ebp)
  401569:	8b 5d fc             	mov    -0x4(%ebp),%ebx
  40156c:	c7 45 0c 02 00 00 00 	movl   $0x2,0xc(%ebp)
  401573:	89 4d 08             	mov    %ecx,0x8(%ebp)
  401576:	c9                   	leave  
  401577:	e9 f4 00 00 00       	jmp    401670 <_DllMain@12>
  40157c:	8d 74 26 00          	lea    0x0(%esi,%eiz,1),%esi
  401580:	31 c0                	xor    %eax,%eax
  401582:	85 d2                	test   %edx,%edx
  401584:	0f 94 c0             	sete   %al
  401587:	31 db                	xor    %ebx,%ebx
  401589:	89 0d 10 30 40 00    	mov    %ecx,0x403010
  40158f:	c7 05 20 30 40 00 01 	movl   $0x1,0x403020
  401596:	00 00 00 
  401599:	89 15 30 30 40 00    	mov    %edx,0x403030
  40159f:	a3 08 30 40 00       	mov    %eax,0x403008
  4015a4:	c7 44 24 04 b0 14 40 	movl   $0x4014b0,0x4(%esp)
  4015ab:	00 
  4015ac:	89 0c 24             	mov    %ecx,(%esp)
  4015af:	e8 6c 00 00 00       	call   401620 <_cygwin_attach_dll>
  4015b4:	83 f8 ff             	cmp    $0xffffffff,%eax
  4015b7:	0f 95 c3             	setne  %bl
  4015ba:	a3 40 30 40 00       	mov    %eax,0x403040
  4015bf:	89 d8                	mov    %ebx,%eax
  4015c1:	8b 5d fc             	mov    -0x4(%ebp),%ebx
  4015c4:	c9                   	leave  
  4015c5:	c2 0c 00             	ret    $0xc
  4015c8:	90                   	nop
  4015c9:	8d b4 26 00 00 00 00 	lea    0x0(%esi,%eiz,1),%esi

004015d0 <__cygwin_noncygwin_dll_entry@12>:
  4015d0:	55                   	push   %ebp
  4015d1:	89 e5                	mov    %esp,%ebp
  4015d3:	c9                   	leave  
  4015d4:	e9 07 ff ff ff       	jmp    4014e0 <__cygwin_dll_entry@12>
  4015d9:	90                   	nop
  4015da:	90                   	nop
  4015db:	90                   	nop
  4015dc:	90                   	nop
  4015dd:	90                   	nop
  4015de:	90                   	nop
  4015df:	90                   	nop

004015e0 <_cygwin_internal>:
  4015e0:	ff 25 a4 40 40 00    	jmp    *0x4040a4
  4015e6:	90                   	nop
  4015e7:	90                   	nop
	...

004015f0 <__pei386_runtime_relocator>:
  4015f0:	55                   	push   %ebp
  4015f1:	89 e5                	mov    %esp,%ebp
  4015f3:	5d                   	pop    %ebp
  4015f4:	c3                   	ret    
  4015f5:	90                   	nop
  4015f6:	90                   	nop
  4015f7:	90                   	nop
  4015f8:	90                   	nop
  4015f9:	90                   	nop
  4015fa:	90                   	nop
  4015fb:	90                   	nop
  4015fc:	90                   	nop
  4015fd:	90                   	nop
  4015fe:	90                   	nop
  4015ff:	90                   	nop

00401600 <_malloc>:
  401600:	ff 25 b0 40 40 00    	jmp    *0x4040b0
  401606:	90                   	nop
  401607:	90                   	nop

00401608 <_free>:
  401608:	ff 25 ac 40 40 00    	jmp    *0x4040ac
  40160e:	90                   	nop
  40160f:	90                   	nop

00401610 <_realloc>:
  401610:	ff 25 b4 40 40 00    	jmp    *0x4040b4
  401616:	90                   	nop
  401617:	90                   	nop

00401618 <_calloc>:
  401618:	ff 25 9c 40 40 00    	jmp    *0x40409c
  40161e:	90                   	nop
  40161f:	90                   	nop

00401620 <_cygwin_attach_dll>:
  401620:	55                   	push   %ebp
  401621:	89 e5                	mov    %esp,%ebp
  401623:	53                   	push   %ebx
  401624:	83 ec 14             	sub    $0x14,%esp
  401627:	8b 5d 08             	mov    0x8(%ebp),%ebx
  40162a:	c7 44 24 04 50 30 40 	movl   $0x403050,0x4(%esp)
  401631:	00 
  401632:	8b 45 0c             	mov    0xc(%ebp),%eax
  401635:	89 04 24             	mov    %eax,(%esp)
  401638:	e8 73 fb ff ff       	call   4011b0 <__cygwin_crt0_common@8>
  40163d:	89 5d 08             	mov    %ebx,0x8(%ebp)
  401640:	8b 5d fc             	mov    -0x4(%ebp),%ebx
  401643:	c7 45 0c 50 30 40 00 	movl   $0x403050,0xc(%ebp)
  40164a:	83 ec 08             	sub    $0x8,%esp
  40164d:	c9                   	leave  
  40164e:	e9 2d 00 00 00       	jmp    401680 <_dll_dllcrt0>
  401653:	90                   	nop
  401654:	90                   	nop
  401655:	90                   	nop
  401656:	90                   	nop
  401657:	90                   	nop
  401658:	90                   	nop
  401659:	90                   	nop
  40165a:	90                   	nop
  40165b:	90                   	nop
  40165c:	90                   	nop
  40165d:	90                   	nop
  40165e:	90                   	nop
  40165f:	90                   	nop

00401660 <_cygwin_detach_dll>:
  401660:	ff 25 a0 40 40 00    	jmp    *0x4040a0
  401666:	90                   	nop
  401667:	90                   	nop
	...

00401670 <_DllMain@12>:
  401670:	55                   	push   %ebp
  401671:	b8 01 00 00 00       	mov    $0x1,%eax
  401676:	89 e5                	mov    %esp,%ebp
  401678:	5d                   	pop    %ebp
  401679:	c2 0c 00             	ret    $0xc
  40167c:	90                   	nop
  40167d:	90                   	nop
  40167e:	90                   	nop
  40167f:	90                   	nop

00401680 <_dll_dllcrt0>:
  401680:	ff 25 a8 40 40 00    	jmp    *0x4040a8
  401686:	90                   	nop
  401687:	90                   	nop

00401688 <_GetModuleHandleA@4>:
  401688:	ff 25 bc 40 40 00    	jmp    *0x4040bc
  40168e:	90                   	nop
  40168f:	90                   	nop

00401690 <_add>:
  401690:	ff 25 c4 40 40 00    	jmp    *0x4040c4
  401696:	90                   	nop
  401697:	90                   	nop

00401698 <_sub>:
  401698:	ff 25 c8 40 40 00    	jmp    *0x4040c8
  40169e:	90                   	nop
  40169f:	90                   	nop

004016a0 <__CTOR_LIST__>:
  4016a0:	ff                   	(bad)  
  4016a1:	ff                   	(bad)  
  4016a2:	ff                   	(bad)  
  4016a3:	ff 00                	incl   (%eax)
  4016a5:	00 00                	add    %al,(%eax)
	...

004016a8 <__DTOR_LIST__>:
  4016a8:	ff                   	(bad)  
  4016a9:	ff                   	(bad)  
  4016aa:	ff                   	(bad)  
  4016ab:	ff 00                	incl   (%eax)
  4016ad:	00 00                	add    %al,(%eax)
	...

Disassembly of section .data:

00402000 <___cygwin_cxx_malloc>:
	...

Disassembly of section .bss:

00403000 <__bss_start__>:
  403000:	00 00                	add    %al,(%eax)
	...

00403004 <__fmode>:
  403004:	00 00                	add    %al,(%eax)
	...

00403008 <___dynamically_loaded>:
	...

00403010 <_storedHandle>:
	...

00403020 <_storedReason>:
	...

00403030 <_storedPtr>:
	...

00403040 <_dll_index>:
	...

00403050 <_u.8577>:
	...

00403100 <.bss>:
	...

Disassembly of section .idata:

00404000 <__head_cygwin1_dll>:
  404000:	50                   	push   %eax
  404001:	40                   	inc    %eax
	...
  40400a:	00 00                	add    %al,(%eax)
  40400c:	ac                   	lods   %ds:(%esi),%al
  40400d:	41                   	inc    %ecx
  40400e:	00 00                	add    %al,(%eax)
  404010:	90                   	nop
  404011:	40                   	inc    %eax
	...

00404014 <__head_libkernel32_a>:
  404014:	7c 40                	jl     404056 <.idata$4+0x2>
	...
  40401e:	00 00                	add    %al,(%eax)
  404020:	bc 41 00 00 bc       	mov    $0xbc000041,%esp
  404025:	40                   	inc    %eax
	...

00404028 <__head_libmymath_so>:
  404028:	84 40 00             	test   %al,0x0(%eax)
	...
  404033:	00 d4                	add    %dl,%ah
  404035:	41                   	inc    %ecx
  404036:	00 00                	add    %al,(%eax)
  404038:	c4 40 00             	les    0x0(%eax),%eax
	...

00404050 <.idata$4>:
  404050:	d0 40 00             	rolb   0x0(%eax)
	...

00404054 <.idata$4>:
  404054:	dc 40 00             	faddl  0x0(%eax)
	...

00404058 <.idata$4>:
  404058:	ec                   	in     (%dx),%al
  404059:	40                   	inc    %eax
	...

0040405c <.idata$4>:
  40405c:	fc                   	cld    
  40405d:	40                   	inc    %eax
	...

00404060 <.idata$4>:
  404060:	08 41 00             	or     %al,0x0(%ecx)
	...

00404064 <.idata$4>:
  404064:	1c 41                	sbb    $0x41,%al
	...

00404068 <.idata$4>:
  404068:	30 41 00             	xor    %al,0x0(%ecx)
	...

0040406c <.idata$4>:
  40406c:	40                   	inc    %eax
  40406d:	41                   	inc    %ecx
	...

00404070 <.idata$4>:
  404070:	48                   	dec    %eax
  404071:	41                   	inc    %ecx
	...

00404074 <.idata$4>:
  404074:	54                   	push   %esp
  404075:	41                   	inc    %ecx
	...

00404078 <.idata$4>:
  404078:	00 00                	add    %al,(%eax)
	...

0040407c <hname>:
  40407c:	60                   	pusha  
  40407d:	41                   	inc    %ecx
	...

00404080 <.idata$4>:
  404080:	00 00                	add    %al,(%eax)
	...

00404084 <.idata$4>:
  404084:	74 41                	je     4040c7 <__imp__add+0x3>
	...

00404088 <.idata$4>:
  404088:	7c 41                	jl     4040cb <__imp__sub+0x3>
	...

0040408c <.idata$4>:
  40408c:	00 00                	add    %al,(%eax)
	...

00404090 <__IAT_start__>:
  404090:	d0 40 00             	rolb   0x0(%eax)
	...

00404094 <__imp___dll_crt0@0>:
  404094:	dc 40 00             	faddl  0x0(%eax)
	...

00404098 <__imp___impure_ptr>:
  404098:	ec                   	in     (%dx),%al
  404099:	40                   	inc    %eax
	...

0040409c <__imp__calloc>:
  40409c:	fc                   	cld    
  40409d:	40                   	inc    %eax
	...

004040a0 <__imp__cygwin_detach_dll>:
  4040a0:	08 41 00             	or     %al,0x0(%ecx)
	...

004040a4 <__imp__cygwin_internal>:
  4040a4:	1c 41                	sbb    $0x41,%al
	...

004040a8 <__imp__dll_dllcrt0>:
  4040a8:	30 41 00             	xor    %al,0x0(%ecx)
	...

004040ac <__imp__free>:
  4040ac:	40                   	inc    %eax
  4040ad:	41                   	inc    %ecx
	...

004040b0 <__imp__malloc>:
  4040b0:	48                   	dec    %eax
  4040b1:	41                   	inc    %ecx
	...

004040b4 <__imp__realloc>:
  4040b4:	54                   	push   %esp
  4040b5:	41                   	inc    %ecx
	...

004040b8 <.idata$5>:
  4040b8:	00 00                	add    %al,(%eax)
	...

004040bc <__imp__GetModuleHandleA@4>:
  4040bc:	60                   	pusha  
  4040bd:	41                   	inc    %ecx
	...

004040c0 <.idata$5>:
  4040c0:	00 00                	add    %al,(%eax)
	...

004040c4 <__imp__add>:
  4040c4:	74 41                	je     404107 <.idata$6+0xb>
	...

004040c8 <__imp__sub>:
  4040c8:	7c 41                	jl     40410b <.idata$6+0x3>
	...

004040cc <.idata$5>:
  4040cc:	00 00                	add    %al,(%eax)
	...

004040d0 <__IAT_end__>:
  4040d0:	3b 00                	cmp    (%eax),%eax
  4040d2:	5f                   	pop    %edi
  4040d3:	5f                   	pop    %edi
  4040d4:	6d                   	insl   (%dx),%es:(%edi)
  4040d5:	61                   	popa   
  4040d6:	69 6e 00 00 00 00 b6 	imul   $0xb6000000,0x0(%esi),%ebp

004040dc <.idata$6>:
  4040dc:	b6 00                	mov    $0x0,%dh
  4040de:	5f                   	pop    %edi
  4040df:	64                   	fs
  4040e0:	6c                   	insb   (%dx),%es:(%edi)
  4040e1:	6c                   	insb   (%dx),%es:(%edi)
  4040e2:	5f                   	pop    %edi
  4040e3:	63 72 74             	arpl   %si,0x74(%edx)
  4040e6:	30 40 30             	xor    %al,0x30(%eax)
  4040e9:	00 00                	add    %al,(%eax)
	...

004040ec <__nm___impure_ptr>:
  4040ec:	6f                   	outsl  %ds:(%esi),(%dx)
  4040ed:	01 5f 69             	add    %ebx,0x69(%edi)
  4040f0:	6d                   	insl   (%dx),%es:(%edi)
  4040f1:	70 75                	jo     404168 <.idata$6+0x8>
  4040f3:	72 65                	jb     40415a <.idata$6+0x6>
  4040f5:	5f                   	pop    %edi
  4040f6:	70 74                	jo     40416c <.idata$6+0xc>
  4040f8:	72 00                	jb     4040fa <__nm___impure_ptr+0xe>
	...

004040fc <.idata$6>:
  4040fc:	e5 02                	in     $0x2,%eax
  4040fe:	63 61 6c             	arpl   %sp,0x6c(%ecx)
  404101:	6c                   	insb   (%dx),%es:(%edi)
  404102:	6f                   	outsl  %ds:(%esi),(%dx)
  404103:	63 00                	arpl   %ax,(%eax)
  404105:	00 00                	add    %al,(%eax)
	...

00404108 <.idata$6>:
  404108:	47                   	inc    %edi
  404109:	03 63 79             	add    0x79(%ebx),%esp
  40410c:	67 77 69             	addr16 ja 404178 <.idata$6+0x4>
  40410f:	6e                   	outsb  %ds:(%esi),(%dx)
  404110:	5f                   	pop    %edi
  404111:	64                   	fs
  404112:	65                   	gs
  404113:	74 61                	je     404176 <.idata$6+0x2>
  404115:	63 68 5f             	arpl   %bp,0x5f(%eax)
  404118:	64                   	fs
  404119:	6c                   	insb   (%dx),%es:(%edi)
  40411a:	6c                   	insb   (%dx),%es:(%edi)
	...

0040411c <.idata$6>:
  40411c:	49                   	dec    %ecx
  40411d:	03 63 79             	add    0x79(%ebx),%esp
  404120:	67 77 69             	addr16 ja 40418c <.idata$7>
  404123:	6e                   	outsb  %ds:(%esi),(%dx)
  404124:	5f                   	pop    %edi
  404125:	69 6e 74 65 72 6e 61 	imul   $0x616e7265,0x74(%esi),%ebp
  40412c:	6c                   	insb   (%dx),%es:(%edi)
  40412d:	00 00                	add    %al,(%eax)
	...

00404130 <.idata$6>:
  404130:	5e                   	pop    %esi
  404131:	03 64 6c 6c          	add    0x6c(%esp,%ebp,2),%esp
  404135:	5f                   	pop    %edi
  404136:	64                   	fs
  404137:	6c                   	insb   (%dx),%es:(%edi)
  404138:	6c                   	insb   (%dx),%es:(%edi)
  404139:	63 72 74             	arpl   %si,0x74(%edx)
  40413c:	30 00                	xor    %al,(%eax)
	...

00404140 <.idata$6>:
  404140:	e7 03                	out    %eax,$0x3
  404142:	66                   	data16
  404143:	72 65                	jb     4041aa <.idata$7+0x2>
  404145:	65 00 00             	add    %al,%gs:(%eax)

00404148 <.idata$6>:
  404148:	fd                   	std    
  404149:	04 6d                	add    $0x6d,%al
  40414b:	61                   	popa   
  40414c:	6c                   	insb   (%dx),%es:(%edi)
  40414d:	6c                   	insb   (%dx),%es:(%edi)
  40414e:	6f                   	outsl  %ds:(%esi),(%dx)
  40414f:	63 00                	arpl   %ax,(%eax)
  404151:	00 00                	add    %al,(%eax)
	...

00404154 <.idata$6>:
  404154:	d5 05                	aad    $0x5
  404156:	72 65                	jb     4041bd <__libkernel32_a_iname+0x1>
  404158:	61                   	popa   
  404159:	6c                   	insb   (%dx),%es:(%edi)
  40415a:	6c                   	insb   (%dx),%es:(%edi)
  40415b:	6f                   	outsl  %ds:(%esi),(%dx)
  40415c:	63 00                	arpl   %ax,(%eax)
	...

00404160 <.idata$6>:
  404160:	11 02                	adc    %eax,(%edx)
  404162:	47                   	inc    %edi
  404163:	65                   	gs
  404164:	74 4d                	je     4041b3 <_cygwin1_dll_iname+0x7>
  404166:	6f                   	outsl  %ds:(%esi),(%dx)
  404167:	64                   	fs
  404168:	75 6c                	jne    4041d6 <_libmymath_so_iname+0x2>
  40416a:	65                   	gs
  40416b:	48                   	dec    %eax
  40416c:	61                   	popa   
  40416d:	6e                   	outsb  %ds:(%esi),(%dx)
  40416e:	64                   	fs
  40416f:	6c                   	insb   (%dx),%es:(%edi)
  404170:	65                   	gs
  404171:	41                   	inc    %ecx
	...

00404174 <.idata$6>:
  404174:	00 00                	add    %al,(%eax)
  404176:	61                   	popa   
  404177:	64 64 00 00          	fs add %al,%fs:(%eax)
	...

0040417c <.idata$6>:
  40417c:	01 00                	add    %eax,(%eax)
  40417e:	73 75                	jae    4041f5 <_libmymath_so_iname+0x21>
  404180:	62 00                	bound  %eax,(%eax)
	...

00404184 <.idata$7>:
  404184:	00 40 00             	add    %al,0x0(%eax)
	...

00404188 <.idata$7>:
  404188:	00 40 00             	add    %al,0x0(%eax)
	...

0040418c <.idata$7>:
  40418c:	00 40 00             	add    %al,0x0(%eax)
	...

00404190 <.idata$7>:
  404190:	00 40 00             	add    %al,0x0(%eax)
	...

00404194 <.idata$7>:
  404194:	00 40 00             	add    %al,0x0(%eax)
	...

00404198 <.idata$7>:
  404198:	00 40 00             	add    %al,0x0(%eax)
	...

0040419c <.idata$7>:
  40419c:	00 40 00             	add    %al,0x0(%eax)
	...

004041a0 <.idata$7>:
  4041a0:	00 40 00             	add    %al,0x0(%eax)
	...

004041a4 <.idata$7>:
  4041a4:	00 40 00             	add    %al,0x0(%eax)
	...

004041a8 <.idata$7>:
  4041a8:	00 40 00             	add    %al,0x0(%eax)
	...

004041ac <_cygwin1_dll_iname>:
  4041ac:	63 79 67             	arpl   %di,0x67(%ecx)
  4041af:	77 69                	ja     40421a <_libmymath_so_iname+0x46>
  4041b1:	6e                   	outsb  %ds:(%esi),(%dx)
  4041b2:	31 2e                	xor    %ebp,(%esi)
  4041b4:	64                   	fs
  4041b5:	6c                   	insb   (%dx),%es:(%edi)
  4041b6:	6c                   	insb   (%dx),%es:(%edi)
	...

004041b8 <.idata$7>:
  4041b8:	14 40                	adc    $0x40,%al
	...

004041bc <__libkernel32_a_iname>:
  4041bc:	4b                   	dec    %ebx
  4041bd:	45                   	inc    %ebp
  4041be:	52                   	push   %edx
  4041bf:	4e                   	dec    %esi
  4041c0:	45                   	inc    %ebp
  4041c1:	4c                   	dec    %esp
  4041c2:	33 32                	xor    (%edx),%esi
  4041c4:	2e                   	cs
  4041c5:	64                   	fs
  4041c6:	6c                   	insb   (%dx),%es:(%edi)
  4041c7:	6c                   	insb   (%dx),%es:(%edi)
  4041c8:	00 00                	add    %al,(%eax)
	...

004041cc <.idata$7>:
  4041cc:	28 40 00             	sub    %al,0x0(%eax)
	...

004041d0 <.idata$7>:
  4041d0:	28 40 00             	sub    %al,0x0(%eax)
	...

004041d4 <_libmymath_so_iname>:
  4041d4:	6c                   	insb   (%dx),%es:(%edi)
  4041d5:	69 62 6d 79 6d 61 74 	imul   $0x74616d79,0x6d(%edx),%esp
  4041dc:	68 2e 73 6f 00       	push   $0x6f732e
  4041e1:	00 00                	add    %al,(%eax)
	...

Disassembly of section .stab:

00405000 <.stab>:
  405000:	01 00                	add    %eax,(%eax)
  405002:	00 00                	add    %al,(%eax)
  405004:	00 00                	add    %al,(%eax)
  405006:	ff 00                	incl   (%eax)
  405008:	60                   	pusha  
  405009:	24 00                	and    $0x0,%al
  40500b:	00 08                	add    %cl,(%eax)
  40500d:	00 00                	add    %al,(%eax)
  40500f:	00 64 00 00          	add    %ah,0x0(%eax,%eax,1)
  405013:	00 90 10 40 00 01    	add    %dl,0x1004010(%eax)
  405019:	00 00                	add    %al,(%eax)
  40501b:	00 64 00 00          	add    %ah,0x0(%eax,%eax,1)
  40501f:	00 90 10 40 00 3e    	add    %dl,0x3e004010(%eax)
  405025:	00 00                	add    %al,(%eax)
  405027:	00 3c 00             	add    %bh,(%eax,%eax,1)
  40502a:	00 00                	add    %al,(%eax)
  40502c:	00 00                	add    %al,(%eax)
  40502e:	00 00                	add    %al,(%eax)
  405030:	4d                   	dec    %ebp
  405031:	00 00                	add    %al,(%eax)
  405033:	00 80 00 00 00 00    	add    %al,0x0(%eax)
  405039:	00 00                	add    %al,(%eax)
  40503b:	00 77 00             	add    %dh,0x0(%edi)
  40503e:	00 00                	add    %al,(%eax)
  405040:	80 00 00             	addb   $0x0,(%eax)
  405043:	00 00                	add    %al,(%eax)
  405045:	00 00                	add    %al,(%eax)
  405047:	00 91 00 00 00 80    	add    %dl,-0x80000000(%ecx)
  40504d:	00 00                	add    %al,(%eax)
  40504f:	00 00                	add    %al,(%eax)
  405051:	00 00                	add    %al,(%eax)
  405053:	00 c0                	add    %al,%al
  405055:	00 00                	add    %al,(%eax)
  405057:	00 80 00 00 00 00    	add    %al,0x0(%eax)
  40505d:	00 00                	add    %al,(%eax)
  40505f:	00 f8                	add    %bh,%al
  405061:	00 00                	add    %al,(%eax)
  405063:	00 80 00 00 00 00    	add    %al,0x0(%eax)
  405069:	00 00                	add    %al,(%eax)
  40506b:	00 35 01 00 00 80    	add    %dh,0x80000001
  405071:	00 00                	add    %al,(%eax)
  405073:	00 00                	add    %al,(%eax)
  405075:	00 00                	add    %al,(%eax)
  405077:	00 86 01 00 00 80    	add    %al,-0x7fffffff(%esi)
  40507d:	00 00                	add    %al,(%eax)
  40507f:	00 00                	add    %al,(%eax)
  405081:	00 00                	add    %al,(%eax)
  405083:	00 d7                	add    %dl,%bh
  405085:	01 00                	add    %eax,(%eax)
  405087:	00 80 00 00 00 00    	add    %al,0x0(%eax)
  40508d:	00 00                	add    %al,(%eax)
  40508f:	00 02                	add    %al,(%edx)
  405091:	02 00                	add    (%eax),%al
  405093:	00 80 00 00 00 00    	add    %al,0x0(%eax)
  405099:	00 00                	add    %al,(%eax)
  40509b:	00 31                	add    %dh,(%ecx)
  40509d:	02 00                	add    (%eax),%al
  40509f:	00 80 00 00 00 00    	add    %al,0x0(%eax)
  4050a5:	00 00                	add    %al,(%eax)
  4050a7:	00 5b 02             	add    %bl,0x2(%ebx)
  4050aa:	00 00                	add    %al,(%eax)
  4050ac:	80 00 00             	addb   $0x0,(%eax)
  4050af:	00 00                	add    %al,(%eax)
  4050b1:	00 00                	add    %al,(%eax)
  4050b3:	00 84 02 00 00 80 00 	add    %al,0x800000(%edx,%eax,1)
  4050ba:	00 00                	add    %al,(%eax)
  4050bc:	00 00                	add    %al,(%eax)
  4050be:	00 00                	add    %al,(%eax)
  4050c0:	9e                   	sahf   
  4050c1:	02 00                	add    (%eax),%al
  4050c3:	00 80 00 00 00 00    	add    %al,0x0(%eax)
  4050c9:	00 00                	add    %al,(%eax)
  4050cb:	00 b9 02 00 00 80    	add    %bh,-0x7ffffffe(%ecx)
  4050d1:	00 00                	add    %al,(%eax)
  4050d3:	00 00                	add    %al,(%eax)
  4050d5:	00 00                	add    %al,(%eax)
  4050d7:	00 da                	add    %bl,%dl
  4050d9:	02 00                	add    (%eax),%al
  4050db:	00 80 00 00 00 00    	add    %al,0x0(%eax)
  4050e1:	00 00                	add    %al,(%eax)
  4050e3:	00 13                	add    %dl,(%ebx)
  4050e5:	03 00                	add    (%eax),%eax
  4050e7:	00 80 00 00 00 00    	add    %al,0x0(%eax)
  4050ed:	00 00                	add    %al,(%eax)
  4050ef:	00 31                	add    %dh,(%ecx)
  4050f1:	03 00                	add    (%eax),%eax
  4050f3:	00 80 00 00 00 00    	add    %al,0x0(%eax)
  4050f9:	00 00                	add    %al,(%eax)
  4050fb:	00 51 03             	add    %dl,0x3(%ecx)
  4050fe:	00 00                	add    %al,(%eax)
  405100:	80 00 00             	addb   $0x0,(%eax)
  405103:	00 00                	add    %al,(%eax)
  405105:	00 00                	add    %al,(%eax)
  405107:	00 76 03             	add    %dh,0x3(%esi)
  40510a:	00 00                	add    %al,(%eax)
  40510c:	80 00 00             	addb   $0x0,(%eax)
  40510f:	00 00                	add    %al,(%eax)
  405111:	00 00                	add    %al,(%eax)
  405113:	00 8a 03 00 00 80    	add    %cl,-0x7ffffffd(%edx)
  405119:	00 00                	add    %al,(%eax)
  40511b:	00 00                	add    %al,(%eax)
  40511d:	00 00                	add    %al,(%eax)
  40511f:	00 ab 03 00 00 80    	add    %ch,-0x7ffffffd(%ebx)
  405125:	00 00                	add    %al,(%eax)
  405127:	00 00                	add    %al,(%eax)
  405129:	00 00                	add    %al,(%eax)
  40512b:	00 c1                	add    %al,%cl
  40512d:	03 00                	add    (%eax),%eax
  40512f:	00 82 00 00 00 3e    	add    %al,0x3e000000(%edx)
  405135:	5f                   	pop    %edi
  405136:	00 00                	add    %al,(%eax)
  405138:	d6                   	(bad)  
  405139:	03 00                	add    (%eax),%eax
  40513b:	00 82 00 00 00 d8    	add    %al,-0x28000000(%edx)
  405141:	04 00                	add    $0x0,%al
  405143:	00 09                	add    %cl,(%ecx)
  405145:	04 00                	add    $0x0,%al
  405147:	00 80 00 d5 00 00    	add    %al,0xd500(%eax)
  40514d:	00 00                	add    %al,(%eax)
  40514f:	00 00                	add    %al,(%eax)
  405151:	00 00                	add    %al,(%eax)
  405153:	00 a2 00 00 00 00    	add    %ah,0x0(%edx)
  405159:	00 00                	add    %al,(%eax)
  40515b:	00 1d 04 00 00 82    	add    %bl,0x82000004
  405161:	00 00                	add    %al,(%eax)
  405163:	00 34 08             	add    %dh,(%eax,%ecx,1)
  405166:	00 00                	add    %al,(%eax)
  405168:	50                   	push   %eax
  405169:	04 00                	add    $0x0,%al
  40516b:	00 80 00 2c 00 00    	add    %al,0x2c00(%eax)
  405171:	00 00                	add    %al,(%eax)
  405173:	00 00                	add    %al,(%eax)
  405175:	00 00                	add    %al,(%eax)
  405177:	00 a2 00 00 00 00    	add    %ah,0x0(%edx)
  40517d:	00 00                	add    %al,(%eax)
  40517f:	00 6d 04             	add    %ch,0x4(%ebp)
  405182:	00 00                	add    %al,(%eax)
  405184:	82                   	(bad)  
  405185:	00 00                	add    %al,(%eax)
  405187:	00 60 46             	add    %ah,0x46(%eax)
  40518a:	03 00                	add    (%eax),%eax
  40518c:	86 04 00             	xchg   %al,(%eax,%eax,1)
  40518f:	00 82 00 00 00 7b    	add    %al,0x7b000000(%edx)
  405195:	5c                   	pop    %esp
  405196:	00 00                	add    %al,(%eax)
  405198:	a0 04 00 00 82       	mov    0x82000004,%al
  40519d:	00 00                	add    %al,(%eax)
  40519f:	00 00                	add    %al,(%eax)
  4051a1:	00 00                	add    %al,(%eax)
  4051a3:	00 be 04 00 00 82    	add    %bh,-0x7dfffffc(%esi)
  4051a9:	00 00                	add    %al,(%eax)
  4051ab:	00 fd                	add    %bh,%ch
  4051ad:	4f                   	dec    %edi
  4051ae:	00 00                	add    %al,(%eax)
  4051b0:	e4 04                	in     $0x4,%al
  4051b2:	00 00                	add    %al,(%eax)
  4051b4:	80 00 1a             	addb   $0x1a,(%eax)
  4051b7:	00 00                	add    %al,(%eax)
  4051b9:	00 00                	add    %al,(%eax)
  4051bb:	00 fb                	add    %bh,%bl
  4051bd:	04 00                	add    $0x0,%al
  4051bf:	00 80 00 1b 00 00    	add    %al,0x1b00(%eax)
  4051c5:	00 00                	add    %al,(%eax)
  4051c7:	00 13                	add    %dl,(%ebx)
  4051c9:	05 00 00 80 00       	add    $0x800000,%eax
  4051ce:	24 00                	and    $0x0,%al
  4051d0:	00 00                	add    %al,(%eax)
  4051d2:	00 00                	add    %al,(%eax)
  4051d4:	2a 05 00 00 80 00    	sub    0x800000,%al
  4051da:	25 00 00 00 00       	and    $0x0,%eax
  4051df:	00 42 05             	add    %al,0x5(%edx)
  4051e2:	00 00                	add    %al,(%eax)
  4051e4:	80 00 2e             	addb   $0x2e,(%eax)
  4051e7:	00 00                	add    %al,(%eax)
  4051e9:	00 00                	add    %al,(%eax)
  4051eb:	00 5f 05             	add    %bl,0x5(%edi)
  4051ee:	00 00                	add    %al,(%eax)
  4051f0:	80 00 2f             	addb   $0x2f,(%eax)
  4051f3:	00 00                	add    %al,(%eax)
  4051f5:	00 00                	add    %al,(%eax)
  4051f7:	00 7d 05             	add    %bh,0x5(%ebp)
  4051fa:	00 00                	add    %al,(%eax)
  4051fc:	80 00 3a             	addb   $0x3a,(%eax)
  4051ff:	00 00                	add    %al,(%eax)
  405201:	00 00                	add    %al,(%eax)
  405203:	00 94 05 00 00 80 00 	add    %dl,0x800000(%ebp,%eax,1)
  40520a:	3b 00                	cmp    (%eax),%eax
  40520c:	00 00                	add    %al,(%eax)
  40520e:	00 00                	add    %al,(%eax)
  405210:	ac                   	lods   %ds:(%esi),%al
  405211:	05 00 00 80 00       	add    $0x800000,%eax
  405216:	4c                   	dec    %esp
  405217:	00 00                	add    %al,(%eax)
  405219:	00 00                	add    %al,(%eax)
  40521b:	00 c9                	add    %cl,%cl
  40521d:	05 00 00 80 00       	add    $0x800000,%eax
  405222:	4d                   	dec    %ebp
  405223:	00 00                	add    %al,(%eax)
  405225:	00 00                	add    %al,(%eax)
  405227:	00 e8                	add    %ch,%al
  405229:	05 00 00 80 00       	add    $0x800000,%eax
  40522e:	63 00                	arpl   %ax,(%eax)
  405230:	00 00                	add    %al,(%eax)
  405232:	00 00                	add    %al,(%eax)
  405234:	00 06                	add    %al,(%esi)
  405236:	00 00                	add    %al,(%eax)
  405238:	80 00 64             	addb   $0x64,(%eax)
	...
  405243:	00 a2 00 00 00 00    	add    %ah,0x0(%edx)
  405249:	00 00                	add    %al,(%eax)
  40524b:	00 00                	add    %al,(%eax)
  40524d:	00 00                	add    %al,(%eax)
  40524f:	00 a2 00 00 00 00    	add    %ah,0x0(%edx)
  405255:	00 00                	add    %al,(%eax)
  405257:	00 19                	add    %bl,(%ecx)
  405259:	06                   	push   %es
  40525a:	00 00                	add    %al,(%eax)
  40525c:	82                   	(bad)  
  40525d:	00 00                	add    %al,(%eax)
  40525f:	00 d1                	add    %dl,%cl
  405261:	05 00 00 31 06       	add    $0x6310000,%eax
  405266:	00 00                	add    %al,(%eax)
  405268:	80 00 0e             	addb   $0xe,(%eax)
	...
  405273:	00 a2 00 00 00 00    	add    %ah,0x0(%edx)
  405279:	00 00                	add    %al,(%eax)
  40527b:	00 4e 06             	add    %cl,0x6(%esi)
  40527e:	00 00                	add    %al,(%eax)
  405280:	80 00 10             	addb   $0x10,(%eax)
  405283:	00 00                	add    %al,(%eax)
  405285:	00 00                	add    %al,(%eax)
  405287:	00 62 06             	add    %ah,0x6(%edx)
  40528a:	00 00                	add    %al,(%eax)
  40528c:	80 00 18             	addb   $0x18,(%eax)
  40528f:	00 00                	add    %al,(%eax)
  405291:	00 00                	add    %al,(%eax)
  405293:	00 77 06             	add    %dh,0x6(%edi)
  405296:	00 00                	add    %al,(%eax)
  405298:	80 00 1d             	addb   $0x1d,(%eax)
  40529b:	00 00                	add    %al,(%eax)
  40529d:	00 00                	add    %al,(%eax)
  40529f:	00 8c 06 00 00 80 00 	add    %cl,0x800000(%esi,%eax,1)
  4052a6:	20 00                	and    %al,(%eax)
  4052a8:	00 00                	add    %al,(%eax)
  4052aa:	00 00                	add    %al,(%eax)
  4052ac:	a1 06 00 00 80       	mov    0x80000006,%eax
  4052b1:	00 24 00             	add    %ah,(%eax,%eax,1)
  4052b4:	00 00                	add    %al,(%eax)
  4052b6:	00 00                	add    %al,(%eax)
  4052b8:	b7 06                	mov    $0x6,%bh
  4052ba:	00 00                	add    %al,(%eax)
  4052bc:	80 00 2c             	addb   $0x2c,(%eax)
  4052bf:	00 00                	add    %al,(%eax)
  4052c1:	00 00                	add    %al,(%eax)
  4052c3:	00 cc                	add    %cl,%ah
  4052c5:	06                   	push   %es
  4052c6:	00 00                	add    %al,(%eax)
  4052c8:	80 00 32             	addb   $0x32,(%eax)
  4052cb:	00 00                	add    %al,(%eax)
  4052cd:	00 00                	add    %al,(%eax)
  4052cf:	00 e3                	add    %ah,%bl
  4052d1:	06                   	push   %es
  4052d2:	00 00                	add    %al,(%eax)
  4052d4:	80 00 38             	addb   $0x38,(%eax)
  4052d7:	00 00                	add    %al,(%eax)
  4052d9:	00 00                	add    %al,(%eax)
  4052db:	00 d6                	add    %dl,%dh
  4052dd:	03 00                	add    (%eax),%eax
  4052df:	00 82 00 00 00 df    	add    %al,-0x21000000(%edx)
  4052e5:	04 00                	add    $0x0,%al
  4052e7:	00 f9                	add    %bh,%cl
  4052e9:	06                   	push   %es
  4052ea:	00 00                	add    %al,(%eax)
  4052ec:	80 00 62             	addb   $0x62,(%eax)
  4052ef:	01 00                	add    %eax,(%eax)
  4052f1:	00 00                	add    %al,(%eax)
  4052f3:	00 00                	add    %al,(%eax)
  4052f5:	00 00                	add    %al,(%eax)
  4052f7:	00 a2 00 00 00 00    	add    %ah,0x0(%edx)
  4052fd:	00 00                	add    %al,(%eax)
  4052ff:	00 0d 07 00 00 80    	add    %cl,0x80000007
  405305:	00 4b 00             	add    %cl,0x0(%ebx)
  405308:	00 00                	add    %al,(%eax)
  40530a:	00 00                	add    %al,(%eax)
  40530c:	b3 07                	mov    $0x7,%bl
  40530e:	00 00                	add    %al,(%eax)
  405310:	80 00 4f             	addb   $0x4f,(%eax)
  405313:	00 00                	add    %al,(%eax)
  405315:	00 00                	add    %al,(%eax)
  405317:	00 ca                	add    %cl,%dl
  405319:	07                   	pop    %es
  40531a:	00 00                	add    %al,(%eax)
  40531c:	80 00 54             	addb   $0x54,(%eax)
	...
  405327:	00 a2 00 00 00 00    	add    %ah,0x0(%edx)
  40532d:	00 00                	add    %al,(%eax)
  40532f:	00 e1                	add    %ah,%cl
  405331:	07                   	pop    %es
  405332:	00 00                	add    %al,(%eax)
  405334:	80 00 15             	addb   $0x15,(%eax)
  405337:	00 00                	add    %al,(%eax)
  405339:	00 00                	add    %al,(%eax)
  40533b:	00 f6                	add    %dh,%dh
  40533d:	07                   	pop    %es
  40533e:	00 00                	add    %al,(%eax)
  405340:	80 00 00             	addb   $0x0,(%eax)
  405343:	00 00                	add    %al,(%eax)
  405345:	00 00                	add    %al,(%eax)
  405347:	00 8c 08 00 00 80 00 	add    %cl,0x800000(%eax,%ecx,1)
  40534e:	00 00                	add    %al,(%eax)
  405350:	00 00                	add    %al,(%eax)
  405352:	00 00                	add    %al,(%eax)
  405354:	65 09 00             	or     %eax,%gs:(%eax)
  405357:	00 80 00 00 00 00    	add    %al,0x0(%eax)
  40535d:	00 00                	add    %al,(%eax)
  40535f:	00 f2                	add    %dh,%dl
  405361:	09 00                	or     %eax,(%eax)
  405363:	00 80 00 00 00 00    	add    %al,0x0(%eax)
  405369:	00 00                	add    %al,(%eax)
  40536b:	00 87 0a 00 00 80    	add    %al,-0x7ffffff6(%edi)
  405371:	00 00                	add    %al,(%eax)
  405373:	00 00                	add    %al,(%eax)
  405375:	00 00                	add    %al,(%eax)
  405377:	00 c6                	add    %al,%dh
  405379:	0a 00                	or     (%eax),%al
  40537b:	00 80 00 00 00 00    	add    %al,0x0(%eax)
  405381:	00 00                	add    %al,(%eax)
  405383:	00 20                	add    %ah,(%eax)
  405385:	0d 00 00 80 00       	or     $0x800000,%eax
  40538a:	00 00                	add    %al,(%eax)
  40538c:	00 00                	add    %al,(%eax)
  40538e:	00 00                	add    %al,(%eax)
  405390:	2b 0f                	sub    (%edi),%ecx
  405392:	00 00                	add    %al,(%eax)
  405394:	80 00 0f             	addb   $0xf,(%eax)
  405397:	01 00                	add    %eax,(%eax)
  405399:	00 00                	add    %al,(%eax)
  40539b:	00 41 0f             	add    %al,0xf(%ecx)
  40539e:	00 00                	add    %al,(%eax)
  4053a0:	80 00 00             	addb   $0x0,(%eax)
  4053a3:	00 00                	add    %al,(%eax)
  4053a5:	00 00                	add    %al,(%eax)
  4053a7:	00 9c 0f 00 00 80 00 	add    %bl,0x800000(%edi,%ecx,1)
  4053ae:	00 00                	add    %al,(%eax)
  4053b0:	00 00                	add    %al,(%eax)
  4053b2:	00 00                	add    %al,(%eax)
  4053b4:	fa                   	cli    
  4053b5:	0f 00 00             	sldt   (%eax)
  4053b8:	80 00 00             	addb   $0x0,(%eax)
	...
  4053c3:	00 a2 00 00 00 00    	add    %ah,0x0(%edx)
  4053c9:	00 00                	add    %al,(%eax)
  4053cb:	00 3b                	add    %bh,(%ebx)
  4053cd:	15 00 00 82 00       	adc    $0x820000,%eax
  4053d2:	00 00                	add    %al,(%eax)
  4053d4:	26 a1 00 00 d6 03    	mov    %es:0x3d60000,%eax
  4053da:	00 00                	add    %al,(%eax)
  4053dc:	82                   	(bad)  
  4053dd:	00 00                	add    %al,(%eax)
  4053df:	00 41 0b             	add    %al,0xb(%ecx)
  4053e2:	00 00                	add    %al,(%eax)
  4053e4:	54                   	push   %esp
  4053e5:	15 00 00 80 00       	adc    $0x800000,%eax
  4053ea:	97                   	xchg   %eax,%edi
  4053eb:	00 00                	add    %al,(%eax)
  4053ed:	00 00                	add    %al,(%eax)
  4053ef:	00 6c 15 00          	add    %ch,0x0(%ebp,%edx,1)
  4053f3:	00 80 00 45 01 00    	add    %al,0x14500(%eax)
  4053f9:	00 00                	add    %al,(%eax)
  4053fb:	00 00                	add    %al,(%eax)
  4053fd:	00 00                	add    %al,(%eax)
  4053ff:	00 a2 00 00 00 00    	add    %ah,0x0(%edx)
  405405:	00 00                	add    %al,(%eax)
  405407:	00 82 15 00 00 82    	add    %al,-0x7dffffeb(%edx)
  40540d:	00 00                	add    %al,(%eax)
  40540f:	00 b1 0f 00 00 9f    	add    %dh,-0x60fffff1(%ecx)
  405415:	15 00 00 80 00       	adc    $0x800000,%eax
  40541a:	13 00                	adc    (%eax),%eax
  40541c:	00 00                	add    %al,(%eax)
  40541e:	00 00                	add    %al,(%eax)
  405420:	b5 15                	mov    $0x15,%ch
  405422:	00 00                	add    %al,(%eax)
  405424:	80 00 14             	addb   $0x14,(%eax)
  405427:	00 00                	add    %al,(%eax)
  405429:	00 00                	add    %al,(%eax)
  40542b:	00 cb                	add    %cl,%bl
  40542d:	15 00 00 80 00       	adc    $0x800000,%eax
  405432:	16                   	push   %ss
	...
  40543b:	00 a2 00 00 00 00    	add    %ah,0x0(%edx)
  405441:	00 00                	add    %al,(%eax)
  405443:	00 e2                	add    %ah,%dl
  405445:	15 00 00 80 00       	adc    $0x800000,%eax
  40544a:	5c                   	pop    %esp
  40544b:	00 00                	add    %al,(%eax)
  40544d:	00 00                	add    %al,(%eax)
  40544f:	00 f8                	add    %bh,%al
  405451:	15 00 00 80 00       	adc    $0x800000,%eax
  405456:	5d                   	pop    %ebp
  405457:	00 00                	add    %al,(%eax)
  405459:	00 00                	add    %al,(%eax)
  40545b:	00 0e                	add    %cl,(%esi)
  40545d:	16                   	push   %ss
  40545e:	00 00                	add    %al,(%eax)
  405460:	80 00 5e             	addb   $0x5e,(%eax)
  405463:	00 00                	add    %al,(%eax)
  405465:	00 00                	add    %al,(%eax)
  405467:	00 22                	add    %ah,(%edx)
  405469:	16                   	push   %ss
  40546a:	00 00                	add    %al,(%eax)
  40546c:	80 00 5f             	addb   $0x5f,(%eax)
  40546f:	00 00                	add    %al,(%eax)
  405471:	00 00                	add    %al,(%eax)
  405473:	00 37                	add    %dh,(%edi)
  405475:	16                   	push   %ss
  405476:	00 00                	add    %al,(%eax)
  405478:	80 00 63             	addb   $0x63,(%eax)
  40547b:	00 00                	add    %al,(%eax)
  40547d:	00 00                	add    %al,(%eax)
  40547f:	00 4c 16 00          	add    %cl,0x0(%esi,%edx,1)
  405483:	00 80 00 64 00 00    	add    %al,0x6400(%eax)
  405489:	00 00                	add    %al,(%eax)
  40548b:	00 5f 16             	add    %bl,0x16(%edi)
  40548e:	00 00                	add    %al,(%eax)
  405490:	80 00 65             	addb   $0x65,(%eax)
  405493:	00 00                	add    %al,(%eax)
  405495:	00 00                	add    %al,(%eax)
  405497:	00 73 16             	add    %dh,0x16(%ebx)
  40549a:	00 00                	add    %al,(%eax)
  40549c:	80 00 69             	addb   $0x69,(%eax)
  40549f:	00 00                	add    %al,(%eax)
  4054a1:	00 00                	add    %al,(%eax)
  4054a3:	00 89 16 00 00 80    	add    %cl,-0x7fffffea(%ecx)
  4054a9:	00 6e 00             	add    %ch,0x0(%esi)
  4054ac:	00 00                	add    %al,(%eax)
  4054ae:	00 00                	add    %al,(%eax)
  4054b0:	9e                   	sahf   
  4054b1:	16                   	push   %ss
  4054b2:	00 00                	add    %al,(%eax)
  4054b4:	80 00 00             	addb   $0x0,(%eax)
  4054b7:	00 00                	add    %al,(%eax)
  4054b9:	00 00                	add    %al,(%eax)
  4054bb:	00 db                	add    %bl,%bl
  4054bd:	16                   	push   %ss
  4054be:	00 00                	add    %al,(%eax)
  4054c0:	80 00 00             	addb   $0x0,(%eax)
  4054c3:	00 00                	add    %al,(%eax)
  4054c5:	00 00                	add    %al,(%eax)
  4054c7:	00 24 17             	add    %ah,(%edi,%edx,1)
  4054ca:	00 00                	add    %al,(%eax)
  4054cc:	80 00 7e             	addb   $0x7e,(%eax)
  4054cf:	00 00                	add    %al,(%eax)
  4054d1:	00 00                	add    %al,(%eax)
  4054d3:	00 3b                	add    %bh,(%ebx)
  4054d5:	17                   	pop    %ss
  4054d6:	00 00                	add    %al,(%eax)
  4054d8:	80 00 7f             	addb   $0x7f,(%eax)
  4054db:	00 00                	add    %al,(%eax)
  4054dd:	00 00                	add    %al,(%eax)
  4054df:	00 53 17             	add    %dl,0x17(%ebx)
  4054e2:	00 00                	add    %al,(%eax)
  4054e4:	80 00 ac             	addb   $0xac,(%eax)
  4054e7:	00 00                	add    %al,(%eax)
  4054e9:	00 00                	add    %al,(%eax)
  4054eb:	00 68 17             	add    %ch,0x17(%eax)
  4054ee:	00 00                	add    %al,(%eax)
  4054f0:	80 00 b6             	addb   $0xb6,(%eax)
  4054f3:	00 00                	add    %al,(%eax)
  4054f5:	00 00                	add    %al,(%eax)
  4054f7:	00 7f 17             	add    %bh,0x17(%edi)
  4054fa:	00 00                	add    %al,(%eax)
  4054fc:	80 00 c9             	addb   $0xc9,(%eax)
  4054ff:	00 00                	add    %al,(%eax)
  405501:	00 00                	add    %al,(%eax)
  405503:	00 96 17 00 00 80    	add    %dl,-0x7fffffe9(%esi)
  405509:	00 df                	add    %bl,%bh
  40550b:	00 00                	add    %al,(%eax)
  40550d:	00 00                	add    %al,(%eax)
  40550f:	00 ad 17 00 00 80    	add    %ch,-0x7fffffe9(%ebp)
  405515:	00 00                	add    %al,(%eax)
  405517:	00 00                	add    %al,(%eax)
  405519:	00 00                	add    %al,(%eax)
  40551b:	00 f3                	add    %dh,%bl
  40551d:	17                   	pop    %ss
  40551e:	00 00                	add    %al,(%eax)
  405520:	80 00 e9             	addb   $0xe9,(%eax)
  405523:	00 00                	add    %al,(%eax)
  405525:	00 00                	add    %al,(%eax)
  405527:	00 12                	add    %dl,(%edx)
  405529:	18 00                	sbb    %al,(%eax)
  40552b:	00 80 00 fe 00 00    	add    %al,0xfe00(%eax)
  405531:	00 00                	add    %al,(%eax)
  405533:	00 2b                	add    %ch,(%ebx)
  405535:	18 00                	sbb    %al,(%eax)
  405537:	00 80 00 03 01 00    	add    %al,0x10300(%eax)
  40553d:	00 00                	add    %al,(%eax)
  40553f:	00 42 18             	add    %al,0x18(%edx)
  405542:	00 00                	add    %al,(%eax)
  405544:	80 00 07             	addb   $0x7,(%eax)
  405547:	01 00                	add    %eax,(%eax)
  405549:	00 00                	add    %al,(%eax)
  40554b:	00 5c 18 00          	add    %bl,0x0(%eax,%ebx,1)
  40554f:	00 80 00 08 01 00    	add    %al,0x10800(%eax)
  405555:	00 00                	add    %al,(%eax)
  405557:	00 77 18             	add    %dh,0x18(%edi)
  40555a:	00 00                	add    %al,(%eax)
  40555c:	82                   	(bad)  
  40555d:	00 00                	add    %al,(%eax)
  40555f:	00 0c d4             	add    %cl,(%esp,%edx,8)
  405562:	01 00                	add    %eax,(%eax)
  405564:	93                   	xchg   %eax,%ebx
  405565:	18 00                	sbb    %al,(%eax)
  405567:	00 82 00 00 00 f0    	add    %al,-0x10000000(%edx)
  40556d:	b8 00 00 a9 18       	mov    $0x18a90000,%eax
  405572:	00 00                	add    %al,(%eax)
  405574:	80 00 12             	addb   $0x12,(%eax)
  405577:	00 00                	add    %al,(%eax)
  405579:	00 00                	add    %al,(%eax)
  40557b:	00 bf 18 00 00 80    	add    %bh,-0x7fffffe8(%edi)
  405581:	00 13                	add    %dl,(%ebx)
  405583:	00 00                	add    %al,(%eax)
  405585:	00 00                	add    %al,(%eax)
  405587:	00 d5                	add    %dl,%ch
  405589:	18 00                	sbb    %al,(%eax)
  40558b:	00 80 00 14 00 00    	add    %al,0x1400(%eax)
  405591:	00 00                	add    %al,(%eax)
  405593:	00 eb                	add    %ch,%bl
  405595:	18 00                	sbb    %al,(%eax)
  405597:	00 80 00 15 00 00    	add    %al,0x1500(%eax)
  40559d:	00 00                	add    %al,(%eax)
  40559f:	00 01                	add    %al,(%ecx)
  4055a1:	19 00                	sbb    %eax,(%eax)
  4055a3:	00 80 00 18 00 00    	add    %al,0x1800(%eax)
  4055a9:	00 00                	add    %al,(%eax)
  4055ab:	00 18                	add    %bl,(%eax)
  4055ad:	19 00                	sbb    %eax,(%eax)
  4055af:	00 80 00 19 00 00    	add    %al,0x1900(%eax)
  4055b5:	00 00                	add    %al,(%eax)
  4055b7:	00 2f                	add    %ch,(%edi)
  4055b9:	19 00                	sbb    %eax,(%eax)
  4055bb:	00 80 00 1c 00 00    	add    %al,0x1c00(%eax)
  4055c1:	00 00                	add    %al,(%eax)
  4055c3:	00 46 19             	add    %al,0x19(%esi)
  4055c6:	00 00                	add    %al,(%eax)
  4055c8:	80 00 1e             	addb   $0x1e,(%eax)
  4055cb:	00 00                	add    %al,(%eax)
  4055cd:	00 00                	add    %al,(%eax)
  4055cf:	00 5d 19             	add    %bl,0x19(%ebp)
  4055d2:	00 00                	add    %al,(%eax)
  4055d4:	80 00 22             	addb   $0x22,(%eax)
  4055d7:	00 00                	add    %al,(%eax)
  4055d9:	00 00                	add    %al,(%eax)
  4055db:	00 79 19             	add    %bh,0x19(%ecx)
  4055de:	00 00                	add    %al,(%eax)
  4055e0:	80 00 23             	addb   $0x23,(%eax)
  4055e3:	00 00                	add    %al,(%eax)
  4055e5:	00 00                	add    %al,(%eax)
  4055e7:	00 96 19 00 00 80    	add    %dl,-0x7fffffe7(%esi)
  4055ed:	00 24 00             	add    %ah,(%eax,%eax,1)
  4055f0:	00 00                	add    %al,(%eax)
  4055f2:	00 00                	add    %al,(%eax)
  4055f4:	b3 19                	mov    $0x19,%bl
  4055f6:	00 00                	add    %al,(%eax)
  4055f8:	80 00 25             	addb   $0x25,(%eax)
  4055fb:	00 00                	add    %al,(%eax)
  4055fd:	00 00                	add    %al,(%eax)
  4055ff:	00 d0                	add    %dl,%al
  405601:	19 00                	sbb    %eax,(%eax)
  405603:	00 80 00 27 00 00    	add    %al,0x2700(%eax)
  405609:	00 00                	add    %al,(%eax)
  40560b:	00 ee                	add    %ch,%dh
  40560d:	19 00                	sbb    %eax,(%eax)
  40560f:	00 80 00 28 00 00    	add    %al,0x2800(%eax)
  405615:	00 00                	add    %al,(%eax)
  405617:	00 0c 1a             	add    %cl,(%edx,%ebx,1)
  40561a:	00 00                	add    %al,(%eax)
  40561c:	80 00 29             	addb   $0x29,(%eax)
  40561f:	00 00                	add    %al,(%eax)
  405621:	00 00                	add    %al,(%eax)
  405623:	00 2a                	add    %ch,(%edx)
  405625:	1a 00                	sbb    (%eax),%al
  405627:	00 80 00 2a 00 00    	add    %al,0x2a00(%eax)
  40562d:	00 00                	add    %al,(%eax)
  40562f:	00 48 1a             	add    %cl,0x1a(%eax)
  405632:	00 00                	add    %al,(%eax)
  405634:	80 00 2e             	addb   $0x2e,(%eax)
  405637:	00 00                	add    %al,(%eax)
  405639:	00 00                	add    %al,(%eax)
  40563b:	00 64 1a 00          	add    %ah,0x0(%edx,%ebx,1)
  40563f:	00 80 00 2f 00 00    	add    %al,0x2f00(%eax)
  405645:	00 00                	add    %al,(%eax)
  405647:	00 80 1a 00 00 80    	add    %al,-0x7fffffe6(%eax)
  40564d:	00 30                	add    %dh,(%eax)
  40564f:	00 00                	add    %al,(%eax)
  405651:	00 00                	add    %al,(%eax)
  405653:	00 9c 1a 00 00 80 00 	add    %bl,0x800000(%edx,%ebx,1)
  40565a:	31 00                	xor    %eax,(%eax)
  40565c:	00 00                	add    %al,(%eax)
  40565e:	00 00                	add    %al,(%eax)
  405660:	b8 1a 00 00 80       	mov    $0x8000001a,%eax
  405665:	00 33                	add    %dh,(%ebx)
  405667:	00 00                	add    %al,(%eax)
  405669:	00 00                	add    %al,(%eax)
  40566b:	00 d5                	add    %dl,%ch
  40566d:	1a 00                	sbb    (%eax),%al
  40566f:	00 80 00 34 00 00    	add    %al,0x3400(%eax)
  405675:	00 00                	add    %al,(%eax)
  405677:	00 f2                	add    %dh,%dl
  405679:	1a 00                	sbb    (%eax),%al
  40567b:	00 80 00 35 00 00    	add    %al,0x3500(%eax)
  405681:	00 00                	add    %al,(%eax)
  405683:	00 0f                	add    %cl,(%edi)
  405685:	1b 00                	sbb    (%eax),%eax
  405687:	00 80 00 36 00 00    	add    %al,0x3600(%eax)
  40568d:	00 00                	add    %al,(%eax)
  40568f:	00 2c 1b             	add    %ch,(%ebx,%ebx,1)
  405692:	00 00                	add    %al,(%eax)
  405694:	80 00 3c             	addb   $0x3c,(%eax)
  405697:	00 00                	add    %al,(%eax)
  405699:	00 00                	add    %al,(%eax)
  40569b:	00 44 1b 00          	add    %al,0x0(%ebx,%ebx,1)
  40569f:	00 80 00 3e 00 00    	add    %al,0x3e00(%eax)
  4056a5:	00 00                	add    %al,(%eax)
  4056a7:	00 5d 1b             	add    %bl,0x1b(%ebp)
  4056aa:	00 00                	add    %al,(%eax)
  4056ac:	80 00 42             	addb   $0x42,(%eax)
  4056af:	00 00                	add    %al,(%eax)
  4056b1:	00 00                	add    %al,(%eax)
  4056b3:	00 75 1b             	add    %dh,0x1b(%ebp)
  4056b6:	00 00                	add    %al,(%eax)
  4056b8:	80 00 43             	addb   $0x43,(%eax)
	...
  4056c3:	00 a2 00 00 00 00    	add    %ah,0x0(%edx)
  4056c9:	00 00                	add    %al,(%eax)
  4056cb:	00 8e 1b 00 00 80    	add    %cl,-0x7fffffe5(%esi)
  4056d1:	00 1a                	add    %bl,(%edx)
  4056d3:	00 00                	add    %al,(%eax)
  4056d5:	00 00                	add    %al,(%eax)
  4056d7:	00 a9 1b 00 00 80    	add    %ch,-0x7fffffe5(%ecx)
  4056dd:	00 1f                	add    %bl,(%edi)
  4056df:	00 00                	add    %al,(%eax)
  4056e1:	00 00                	add    %al,(%eax)
  4056e3:	00 c5                	add    %al,%ch
  4056e5:	1b 00                	sbb    (%eax),%eax
  4056e7:	00 80 00 24 00 00    	add    %al,0x2400(%eax)
  4056ed:	00 00                	add    %al,(%eax)
  4056ef:	00 d9                	add    %bl,%cl
  4056f1:	1b 00                	sbb    (%eax),%eax
  4056f3:	00 80 00 27 00 00    	add    %al,0x2700(%eax)
  4056f9:	00 00                	add    %al,(%eax)
  4056fb:	00 ef                	add    %ch,%bh
  4056fd:	1b 00                	sbb    (%eax),%eax
  4056ff:	00 80 00 2b 00 00    	add    %al,0x2b00(%eax)
  405705:	00 00                	add    %al,(%eax)
  405707:	00 07                	add    %al,(%edi)
  405709:	1c 00                	sbb    $0x0,%al
  40570b:	00 80 00 2c 00 00    	add    %al,0x2c00(%eax)
  405711:	00 00                	add    %al,(%eax)
  405713:	00 1f                	add    %bl,(%edi)
  405715:	1c 00                	sbb    $0x0,%al
  405717:	00 80 00 2d 00 00    	add    %al,0x2d00(%eax)
  40571d:	00 00                	add    %al,(%eax)
  40571f:	00 34 1c             	add    %dh,(%esp,%ebx,1)
  405722:	00 00                	add    %al,(%eax)
  405724:	80 00 32             	addb   $0x32,(%eax)
  405727:	00 00                	add    %al,(%eax)
  405729:	00 00                	add    %al,(%eax)
  40572b:	00 4c 1c 00          	add    %cl,0x0(%esp,%ebx,1)
  40572f:	00 80 00 37 00 00    	add    %al,0x3700(%eax)
  405735:	00 00                	add    %al,(%eax)
  405737:	00 67 1c             	add    %ah,0x1c(%edi)
  40573a:	00 00                	add    %al,(%eax)
  40573c:	80 00 38             	addb   $0x38,(%eax)
  40573f:	00 00                	add    %al,(%eax)
  405741:	00 00                	add    %al,(%eax)
  405743:	00 83 1c 00 00 80    	add    %al,-0x7fffffe4(%ebx)
  405749:	00 39                	add    %bh,(%ecx)
  40574b:	00 00                	add    %al,(%eax)
  40574d:	00 00                	add    %al,(%eax)
  40574f:	00 9d 1c 00 00 80    	add    %bl,-0x7fffffe4(%ebp)
  405755:	00 3e                	add    %bh,(%esi)
  405757:	00 00                	add    %al,(%eax)
  405759:	00 00                	add    %al,(%eax)
  40575b:	00 b7 1c 00 00 80    	add    %dh,-0x7fffffe4(%edi)
  405761:	00 43 00             	add    %al,0x0(%ebx)
  405764:	00 00                	add    %al,(%eax)
  405766:	00 00                	add    %al,(%eax)
  405768:	d1 1c 00             	rcrl   (%eax,%eax,1)
  40576b:	00 80 00 48 00 00    	add    %al,0x4800(%eax)
  405771:	00 00                	add    %al,(%eax)
  405773:	00 ea                	add    %ch,%dl
  405775:	1c 00                	sbb    $0x0,%al
  405777:	00 80 00 49 00 00    	add    %al,0x4900(%eax)
  40577d:	00 00                	add    %al,(%eax)
  40577f:	00 03                	add    %al,(%ebx)
  405781:	1d 00 00 80 00       	sbb    $0x800000,%eax
  405786:	4a                   	dec    %edx
  405787:	00 00                	add    %al,(%eax)
  405789:	00 00                	add    %al,(%eax)
  40578b:	00 1a                	add    %bl,(%edx)
  40578d:	1d 00 00 80 00       	sbb    $0x800000,%eax
  405792:	4f                   	dec    %edi
  405793:	00 00                	add    %al,(%eax)
  405795:	00 00                	add    %al,(%eax)
  405797:	00 33                	add    %dh,(%ebx)
  405799:	1d 00 00 80 00       	sbb    $0x800000,%eax
  40579e:	50                   	push   %eax
  40579f:	00 00                	add    %al,(%eax)
  4057a1:	00 00                	add    %al,(%eax)
  4057a3:	00 4c 1d 00          	add    %cl,0x0(%ebp,%ebx,1)
  4057a7:	00 80 00 51 00 00    	add    %al,0x5100(%eax)
  4057ad:	00 00                	add    %al,(%eax)
  4057af:	00 63 1d             	add    %ah,0x1d(%ebx)
  4057b2:	00 00                	add    %al,(%eax)
  4057b4:	80 00 56             	addb   $0x56,(%eax)
  4057b7:	00 00                	add    %al,(%eax)
  4057b9:	00 00                	add    %al,(%eax)
  4057bb:	00 7c 1d 00          	add    %bh,0x0(%ebp,%ebx,1)
  4057bf:	00 80 00 57 00 00    	add    %al,0x5700(%eax)
  4057c5:	00 00                	add    %al,(%eax)
  4057c7:	00 95 1d 00 00 80    	add    %dl,-0x7fffffe3(%ebp)
  4057cd:	00 58 00             	add    %bl,0x0(%eax)
  4057d0:	00 00                	add    %al,(%eax)
  4057d2:	00 00                	add    %al,(%eax)
  4057d4:	ac                   	lods   %ds:(%esi),%al
  4057d5:	1d 00 00 80 00       	sbb    $0x800000,%eax
  4057da:	5e                   	pop    %esi
  4057db:	00 00                	add    %al,(%eax)
  4057dd:	00 00                	add    %al,(%eax)
  4057df:	00 c0                	add    %al,%al
  4057e1:	1d 00 00 80 00       	sbb    $0x800000,%eax
  4057e6:	00 00                	add    %al,(%eax)
  4057e8:	00 00                	add    %al,(%eax)
  4057ea:	00 00                	add    %al,(%eax)
  4057ec:	39 1e                	cmp    %ebx,(%esi)
  4057ee:	00 00                	add    %al,(%eax)
  4057f0:	80 00 7e             	addb   $0x7e,(%eax)
  4057f3:	00 00                	add    %al,(%eax)
  4057f5:	00 00                	add    %al,(%eax)
  4057f7:	00 4e 1e             	add    %cl,0x1e(%esi)
  4057fa:	00 00                	add    %al,(%eax)
  4057fc:	80 00 86             	addb   $0x86,(%eax)
  4057ff:	00 00                	add    %al,(%eax)
  405801:	00 00                	add    %al,(%eax)
  405803:	00 69 1e             	add    %ch,0x1e(%ecx)
  405806:	00 00                	add    %al,(%eax)
  405808:	80 00 8b             	addb   $0x8b,(%eax)
  40580b:	00 00                	add    %al,(%eax)
  40580d:	00 00                	add    %al,(%eax)
  40580f:	00 82 1e 00 00 80    	add    %al,-0x7fffffe2(%edx)
  405815:	00 90 00 00 00 00    	add    %dl,0x0(%eax)
  40581b:	00 9d 1e 00 00 80    	add    %bl,-0x7fffffe2(%ebp)
  405821:	00 95 00 00 00 00    	add    %dl,0x0(%ebp)
  405827:	00 b6 1e 00 00 80    	add    %dh,-0x7fffffe2(%esi)
  40582d:	00 99 00 00 00 00    	add    %bl,0x0(%ecx)
  405833:	00 cf                	add    %cl,%bh
  405835:	1e                   	push   %ds
  405836:	00 00                	add    %al,(%eax)
  405838:	80 00 9d             	addb   $0x9d,(%eax)
  40583b:	00 00                	add    %al,(%eax)
  40583d:	00 00                	add    %al,(%eax)
  40583f:	00 e8                	add    %ch,%al
  405841:	1e                   	push   %ds
  405842:	00 00                	add    %al,(%eax)
  405844:	80 00 a1             	addb   $0xa1,(%eax)
  405847:	00 00                	add    %al,(%eax)
  405849:	00 00                	add    %al,(%eax)
  40584b:	00 02                	add    %al,(%edx)
  40584d:	1f                   	pop    %ds
  40584e:	00 00                	add    %al,(%eax)
  405850:	80 00 a6             	addb   $0xa6,(%eax)
  405853:	00 00                	add    %al,(%eax)
  405855:	00 00                	add    %al,(%eax)
  405857:	00 1c 1f             	add    %bl,(%edi,%ebx,1)
  40585a:	00 00                	add    %al,(%eax)
  40585c:	80 00 ab             	addb   $0xab,(%eax)
  40585f:	00 00                	add    %al,(%eax)
  405861:	00 00                	add    %al,(%eax)
  405863:	00 33                	add    %dh,(%ebx)
  405865:	1f                   	pop    %ds
  405866:	00 00                	add    %al,(%eax)
  405868:	80 00 b0             	addb   $0xb0,(%eax)
  40586b:	00 00                	add    %al,(%eax)
  40586d:	00 00                	add    %al,(%eax)
  40586f:	00 49 1f             	add    %cl,0x1f(%ecx)
  405872:	00 00                	add    %al,(%eax)
  405874:	80 00 00             	addb   $0x0,(%eax)
  405877:	00 00                	add    %al,(%eax)
  405879:	00 00                	add    %al,(%eax)
  40587b:	00 74 1f 00          	add    %dh,0x0(%edi,%ebx,1)
  40587f:	00 80 00 b6 00 00    	add    %al,0xb600(%eax)
  405885:	00 00                	add    %al,(%eax)
  405887:	00 98 1f 00 00 80    	add    %bl,-0x7fffffe1(%eax)
  40588d:	00 00                	add    %al,(%eax)
  40588f:	00 00                	add    %al,(%eax)
  405891:	00 00                	add    %al,(%eax)
  405893:	00 c9                	add    %cl,%cl
  405895:	1f                   	pop    %ds
  405896:	00 00                	add    %al,(%eax)
  405898:	80 00 b7             	addb   $0xb7,(%eax)
  40589b:	00 00                	add    %al,(%eax)
  40589d:	00 00                	add    %al,(%eax)
  40589f:	00 f3                	add    %dh,%bl
  4058a1:	1f                   	pop    %ds
  4058a2:	00 00                	add    %al,(%eax)
  4058a4:	80 00 00             	addb   $0x0,(%eax)
  4058a7:	00 00                	add    %al,(%eax)
  4058a9:	00 00                	add    %al,(%eax)
  4058ab:	00 22                	add    %ah,(%edx)
  4058ad:	20 00                	and    %al,(%eax)
  4058af:	00 80 00 b9 00 00    	add    %al,0xb900(%eax)
  4058b5:	00 00                	add    %al,(%eax)
  4058b7:	00 4a 20             	add    %cl,0x20(%edx)
  4058ba:	00 00                	add    %al,(%eax)
  4058bc:	80 00 00             	addb   $0x0,(%eax)
  4058bf:	00 00                	add    %al,(%eax)
  4058c1:	00 00                	add    %al,(%eax)
  4058c3:	00 7a 20             	add    %bh,0x20(%edx)
  4058c6:	00 00                	add    %al,(%eax)
  4058c8:	80 00 ba             	addb   $0xba,(%eax)
  4058cb:	00 00                	add    %al,(%eax)
  4058cd:	00 00                	add    %al,(%eax)
  4058cf:	00 a3 20 00 00 80    	add    %ah,-0x7fffffe0(%ebx)
  4058d5:	00 00                	add    %al,(%eax)
  4058d7:	00 00                	add    %al,(%eax)
  4058d9:	00 00                	add    %al,(%eax)
  4058db:	00 d8                	add    %bl,%al
  4058dd:	20 00                	and    %al,(%eax)
  4058df:	00 80 00 bb 00 00    	add    %al,0xbb00(%eax)
  4058e5:	00 00                	add    %al,(%eax)
  4058e7:	00 06                	add    %al,(%esi)
  4058e9:	21 00                	and    %eax,(%eax)
  4058eb:	00 80 00 00 00 00    	add    %al,0x0(%eax)
  4058f1:	00 00                	add    %al,(%eax)
  4058f3:	00 3a                	add    %bh,(%edx)
  4058f5:	21 00                	and    %eax,(%eax)
  4058f7:	00 80 00 bc 00 00    	add    %al,0xbc00(%eax)
  4058fd:	00 00                	add    %al,(%eax)
  4058ff:	00 67 21             	add    %ah,0x21(%edi)
  405902:	00 00                	add    %al,(%eax)
  405904:	80 00 00             	addb   $0x0,(%eax)
  405907:	00 00                	add    %al,(%eax)
  405909:	00 00                	add    %al,(%eax)
  40590b:	00 97 21 00 00 80    	add    %dl,-0x7fffffdf(%edi)
  405911:	00 bd 00 00 00 00    	add    %bh,0x0(%ebp)
  405917:	00 c0                	add    %al,%al
  405919:	21 00                	and    %eax,(%eax)
  40591b:	00 80 00 c5 00 00    	add    %al,0xc500(%eax)
  405921:	00 00                	add    %al,(%eax)
  405923:	00 09                	add    %cl,(%ecx)
  405925:	22 00                	and    (%eax),%al
  405927:	00 80 00 00 00 00    	add    %al,0x0(%eax)
  40592d:	00 00                	add    %al,(%eax)
  40592f:	00 3b                	add    %bh,(%ebx)
  405931:	22 00                	and    (%eax),%al
  405933:	00 80 00 c6 00 00    	add    %al,0xc600(%eax)
  405939:	00 00                	add    %al,(%eax)
  40593b:	00 66 22             	add    %ah,0x22(%esi)
  40593e:	00 00                	add    %al,(%eax)
  405940:	80 00 00             	addb   $0x0,(%eax)
  405943:	00 00                	add    %al,(%eax)
  405945:	00 00                	add    %al,(%eax)
  405947:	00 9c 22 00 00 80 00 	add    %bl,0x800000(%edx,%eiz,1)
  40594e:	c7 00 00 00 00 00    	movl   $0x0,(%eax)
  405954:	00 00                	add    %al,(%eax)
  405956:	00 00                	add    %al,(%eax)
  405958:	a2 00 00 00 00       	mov    %al,0x0
  40595d:	00 00                	add    %al,(%eax)
  40595f:	00 00                	add    %al,(%eax)
  405961:	00 00                	add    %al,(%eax)
  405963:	00 a2 00 00 00 00    	add    %ah,0x0(%edx)
  405969:	00 00                	add    %al,(%eax)
  40596b:	00 cb                	add    %cl,%bl
  40596d:	22 00                	and    (%eax),%al
  40596f:	00 80 00 32 00 00    	add    %al,0x3200(%eax)
  405975:	00 00                	add    %al,(%eax)
  405977:	00 de                	add    %bl,%dh
  405979:	22 00                	and    (%eax),%al
  40597b:	00 80 00 35 00 00    	add    %al,0x3500(%eax)
  405981:	00 00                	add    %al,(%eax)
  405983:	00 f2                	add    %dh,%dl
  405985:	22 00                	and    (%eax),%al
  405987:	00 80 00 28 02 00    	add    %al,0x22800(%eax)
  40598d:	00 00                	add    %al,(%eax)
  40598f:	00 1f                	add    %bl,(%edi)
  405991:	23 00                	and    (%eax),%eax
  405993:	00 80 00 2a 02 00    	add    %al,0x22a00(%eax)
  405999:	00 00                	add    %al,(%eax)
  40599b:	00 4d 23             	add    %cl,0x23(%ebp)
  40599e:	00 00                	add    %al,(%eax)
  4059a0:	80 00 2d             	addb   $0x2d,(%eax)
  4059a3:	02 00                	add    (%eax),%al
  4059a5:	00 00                	add    %al,(%eax)
  4059a7:	00 78 23             	add    %bh,0x23(%eax)
  4059aa:	00 00                	add    %al,(%eax)
  4059ac:	80 00 31             	addb   $0x31,(%eax)
  4059af:	02 00                	add    (%eax),%al
  4059b1:	00 00                	add    %al,(%eax)
  4059b3:	00 a5 23 00 00 80    	add    %ah,-0x7fffffdd(%ebp)
  4059b9:	00 3a                	add    %bh,(%edx)
  4059bb:	02 00                	add    (%eax),%al
  4059bd:	00 00                	add    %al,(%eax)
  4059bf:	00 00                	add    %al,(%eax)
  4059c1:	00 00                	add    %al,(%eax)
  4059c3:	00 a2 00 00 00 00    	add    %ah,0x0(%edx)
  4059c9:	00 00                	add    %al,(%eax)
  4059cb:	00 34 24             	add    %dh,(%esp)
  4059ce:	00 00                	add    %al,(%eax)
  4059d0:	24 00                	and    $0x0,%al
  4059d2:	06                   	push   %es
  4059d3:	00 90 10 40 00 00    	add    %dl,0x4010(%eax)
  4059d9:	00 00                	add    %al,(%eax)
  4059db:	00 44 00 06          	add    %al,0x6(%eax,%eax,1)
	...
  4059e7:	00 44 00 06          	add    %al,0x6(%eax,%eax,1)
  4059eb:	00 25 00 00 00 00    	add    %ah,0x0
  4059f1:	00 00                	add    %al,(%eax)
  4059f3:	00 44 00 07          	add    %al,0x7(%eax,%eax,1)
  4059f7:	00 2a                	add    %ch,(%edx)
  4059f9:	00 00                	add    %al,(%eax)
  4059fb:	00 00                	add    %al,(%eax)
  4059fd:	00 00                	add    %al,(%eax)
  4059ff:	00 44 00 08          	add    %al,0x8(%eax,%eax,1)
  405a03:	00 31                	add    %dh,(%ecx)
  405a05:	00 00                	add    %al,(%eax)
  405a07:	00 00                	add    %al,(%eax)
  405a09:	00 00                	add    %al,(%eax)
  405a0b:	00 44 00 09          	add    %al,0x9(%eax,%eax,1)
  405a0f:	00 38                	add    %bh,(%eax)
  405a11:	00 00                	add    %al,(%eax)
  405a13:	00 00                	add    %al,(%eax)
  405a15:	00 00                	add    %al,(%eax)
  405a17:	00 44 00 0a          	add    %al,0xa(%eax,%eax,1)
  405a1b:	00 4d 00             	add    %cl,0x0(%ebp)
  405a1e:	00 00                	add    %al,(%eax)
  405a20:	00 00                	add    %al,(%eax)
  405a22:	00 00                	add    %al,(%eax)
  405a24:	44                   	inc    %esp
  405a25:	00 10                	add    %dl,(%eax)
  405a27:	00 62 00             	add    %ah,0x0(%edx)
  405a2a:	00 00                	add    %al,(%eax)
  405a2c:	00 00                	add    %al,(%eax)
  405a2e:	00 00                	add    %al,(%eax)
  405a30:	44                   	inc    %esp
  405a31:	00 11                	add    %dl,(%ecx)
  405a33:	00 67 00             	add    %ah,0x0(%edi)
  405a36:	00 00                	add    %al,(%eax)
  405a38:	40                   	inc    %eax
  405a39:	24 00                	and    $0x0,%al
  405a3b:	00 80 00 07 00 fc    	add    %al,-0x3fff900(%eax)
  405a41:	ff                   	(bad)  
  405a42:	ff                   	(bad)  
  405a43:	ff 48 24             	decl   0x24(%eax)
  405a46:	00 00                	add    %al,(%eax)
  405a48:	80 00 08             	addb   $0x8,(%eax)
  405a4b:	00 f8                	add    %bh,%al
  405a4d:	ff                   	(bad)  
  405a4e:	ff                   	(bad)  
  405a4f:	ff 50 24             	call   *0x24(%eax)
  405a52:	00 00                	add    %al,(%eax)
  405a54:	80 00 09             	addb   $0x9,(%eax)
  405a57:	00 f4                	add    %dh,%ah
  405a59:	ff                   	(bad)  
  405a5a:	ff                   	(bad)  
  405a5b:	ff 58 24             	lcall  *0x24(%eax)
  405a5e:	00 00                	add    %al,(%eax)
  405a60:	80 00 0a             	addb   $0xa,(%eax)
  405a63:	00 f0                	add    %dh,%al
  405a65:	ff                   	(bad)  
  405a66:	ff                   	(bad)  
  405a67:	ff 00                	incl   (%eax)
  405a69:	00 00                	add    %al,(%eax)
  405a6b:	00 c0                	add    %al,%al
	...
  405a75:	00 00                	add    %al,(%eax)
  405a77:	00 e0                	add    %ah,%al
  405a79:	00 00                	add    %al,(%eax)
  405a7b:	00 69 00             	add    %ch,0x0(%ecx)
  405a7e:	00 00                	add    %al,(%eax)
  405a80:	00 00                	add    %al,(%eax)
  405a82:	00 00                	add    %al,(%eax)
  405a84:	24 00                	and    $0x0,%al
  405a86:	00 00                	add    %al,(%eax)
  405a88:	69 00 00 00 00 00    	imul   $0x0,(%eax),%eax
  405a8e:	00 00                	add    %al,(%eax)
  405a90:	64 00 00             	add    %al,%fs:(%eax)
  405a93:	00 f9                	add    %bh,%cl
  405a95:	10 40 00             	adc    %al,0x0(%eax)

Disassembly of section .stabstr:

00406000 <.stabstr>:
  406000:	00 6d 61             	add    %ch,0x61(%ebp)
  406003:	69 6e 2e 63 00 2f 63 	imul   $0x632f0063,0x2e(%esi),%ebp
  40600a:	79 67                	jns    406073 <___crt_xc_end__+0x1073>
  40600c:	64                   	fs
  40600d:	72 69                	jb     406078 <___crt_xc_end__+0x1078>
  40600f:	76 65                	jbe    406076 <___crt_xc_end__+0x1076>
  406011:	2f                   	das    
  406012:	65                   	gs
  406013:	2f                   	das    
  406014:	4d                   	dec    %ebp
  406015:	79 44                	jns    40605b <___crt_xc_end__+0x105b>
  406017:	65                   	gs
  406018:	73 69                	jae    406083 <___crt_xc_end__+0x1083>
  40601a:	67 6e                	outsb  %ds:(%si),(%dx)
  40601c:	65                   	gs
  40601d:	72 2f                	jb     40604e <___crt_xc_end__+0x104e>
  40601f:	50                   	push   %eax
  406020:	72 6f                	jb     406091 <___crt_xc_end__+0x1091>
  406022:	6a 65                	push   $0x65
  406024:	63 74 2f 67          	arpl   %si,0x67(%edi,%ebp,1)
  406028:	63 63 5f             	arpl   %sp,0x5f(%ebx)
  40602b:	67 64 62 5f 6d       	bound  %ebx,%fs:0x6d(%bx)
  406030:	61                   	popa   
  406031:	6b 65 2f 65          	imul   $0x65,0x2f(%ebp),%esp
  406035:	78 61                	js     406098 <___crt_xc_end__+0x1098>
  406037:	6d                   	insl   (%dx),%es:(%edi)
  406038:	70 6c                	jo     4060a6 <___crt_xc_end__+0x10a6>
  40603a:	65 32 2f             	xor    %gs:(%edi),%ch
  40603d:	00 67 63             	add    %ah,0x63(%edi)
  406040:	63 32                	arpl   %si,(%edx)
  406042:	5f                   	pop    %edi
  406043:	63 6f 6d             	arpl   %bp,0x6d(%edi)
  406046:	70 69                	jo     4060b1 <___crt_xc_end__+0x10b1>
  406048:	6c                   	insb   (%dx),%es:(%edi)
  406049:	65 64 2e 00 69 6e    	gs fs add %ch,%cs:%fs:%gs:0x6e(%ecx)
  40604f:	74 3a                	je     40608b <___crt_xc_end__+0x108b>
  406051:	74 28                	je     40607b <___crt_xc_end__+0x107b>
  406053:	30 2c 31             	xor    %ch,(%ecx,%esi,1)
  406056:	29 3d 72 28 30 2c    	sub    %edi,0x2c302872
  40605c:	31 29                	xor    %ebp,(%ecx)
  40605e:	3b 2d 32 31 34 37    	cmp    0x37343132,%ebp
  406064:	34 38                	xor    $0x38,%al
  406066:	33 36                	xor    (%esi),%esi
  406068:	34 38                	xor    $0x38,%al
  40606a:	3b 32                	cmp    (%edx),%esi
  40606c:	31 34 37             	xor    %esi,(%edi,%esi,1)
  40606f:	34 38                	xor    $0x38,%al
  406071:	33 36                	xor    (%esi),%esi
  406073:	34 37                	xor    $0x37,%al
  406075:	3b 00                	cmp    (%eax),%eax
  406077:	63 68 61             	arpl   %bp,0x61(%eax)
  40607a:	72 3a                	jb     4060b6 <___crt_xc_end__+0x10b6>
  40607c:	74 28                	je     4060a6 <___crt_xc_end__+0x10a6>
  40607e:	30 2c 32             	xor    %ch,(%edx,%esi,1)
  406081:	29 3d 72 28 30 2c    	sub    %edi,0x2c302872
  406087:	32 29                	xor    (%ecx),%ch
  406089:	3b 30                	cmp    (%eax),%esi
  40608b:	3b 31                	cmp    (%ecx),%esi
  40608d:	32 37                	xor    (%edi),%dh
  40608f:	3b 00                	cmp    (%eax),%eax
  406091:	6c                   	insb   (%dx),%es:(%edi)
  406092:	6f                   	outsl  %ds:(%esi),(%dx)
  406093:	6e                   	outsb  %ds:(%esi),(%dx)
  406094:	67 20 69 6e          	and    %ch,0x6e(%bx,%di)
  406098:	74 3a                	je     4060d4 <___crt_xc_end__+0x10d4>
  40609a:	74 28                	je     4060c4 <___crt_xc_end__+0x10c4>
  40609c:	30 2c 33             	xor    %ch,(%ebx,%esi,1)
  40609f:	29 3d 72 28 30 2c    	sub    %edi,0x2c302872
  4060a5:	33 29                	xor    (%ecx),%ebp
  4060a7:	3b 2d 32 31 34 37    	cmp    0x37343132,%ebp
  4060ad:	34 38                	xor    $0x38,%al
  4060af:	33 36                	xor    (%esi),%esi
  4060b1:	34 38                	xor    $0x38,%al
  4060b3:	3b 32                	cmp    (%edx),%esi
  4060b5:	31 34 37             	xor    %esi,(%edi,%esi,1)
  4060b8:	34 38                	xor    $0x38,%al
  4060ba:	33 36                	xor    (%esi),%esi
  4060bc:	34 37                	xor    $0x37,%al
  4060be:	3b 00                	cmp    (%eax),%eax
  4060c0:	75 6e                	jne    406130 <___crt_xc_end__+0x1130>
  4060c2:	73 69                	jae    40612d <___crt_xc_end__+0x112d>
  4060c4:	67 6e                	outsb  %ds:(%si),(%dx)
  4060c6:	65 64 20 69 6e       	gs and %ch,%fs:%gs:0x6e(%ecx)
  4060cb:	74 3a                	je     406107 <___crt_xc_end__+0x1107>
  4060cd:	74 28                	je     4060f7 <___crt_xc_end__+0x10f7>
  4060cf:	30 2c 34             	xor    %ch,(%esp,%esi,1)
  4060d2:	29 3d 72 28 30 2c    	sub    %edi,0x2c302872
  4060d8:	34 29                	xor    $0x29,%al
  4060da:	3b 30                	cmp    (%eax),%esi
  4060dc:	30 30                	xor    %dh,(%eax)
  4060de:	30 30                	xor    %dh,(%eax)
  4060e0:	30 30                	xor    %dh,(%eax)
  4060e2:	30 30                	xor    %dh,(%eax)
  4060e4:	30 30                	xor    %dh,(%eax)
  4060e6:	30 30                	xor    %dh,(%eax)
  4060e8:	3b 30                	cmp    (%eax),%esi
  4060ea:	30 33                	xor    %dh,(%ebx)
  4060ec:	37                   	aaa    
  4060ed:	37                   	aaa    
  4060ee:	37                   	aaa    
  4060ef:	37                   	aaa    
  4060f0:	37                   	aaa    
  4060f1:	37                   	aaa    
  4060f2:	37                   	aaa    
  4060f3:	37                   	aaa    
  4060f4:	37                   	aaa    
  4060f5:	37                   	aaa    
  4060f6:	3b 00                	cmp    (%eax),%eax
  4060f8:	6c                   	insb   (%dx),%es:(%edi)
  4060f9:	6f                   	outsl  %ds:(%esi),(%dx)
  4060fa:	6e                   	outsb  %ds:(%esi),(%dx)
  4060fb:	67 20 75 6e          	and    %dh,0x6e(%di)
  4060ff:	73 69                	jae    40616a <___crt_xc_end__+0x116a>
  406101:	67 6e                	outsb  %ds:(%si),(%dx)
  406103:	65 64 20 69 6e       	gs and %ch,%fs:%gs:0x6e(%ecx)
  406108:	74 3a                	je     406144 <___crt_xc_end__+0x1144>
  40610a:	74 28                	je     406134 <___crt_xc_end__+0x1134>
  40610c:	30 2c 35 29 3d 72 28 	xor    %ch,0x28723d29(,%esi,1)
  406113:	30 2c 35 29 3b 30 30 	xor    %ch,0x30303b29(,%esi,1)
  40611a:	30 30                	xor    %dh,(%eax)
  40611c:	30 30                	xor    %dh,(%eax)
  40611e:	30 30                	xor    %dh,(%eax)
  406120:	30 30                	xor    %dh,(%eax)
  406122:	30 30                	xor    %dh,(%eax)
  406124:	30 3b                	xor    %bh,(%ebx)
  406126:	30 30                	xor    %dh,(%eax)
  406128:	33 37                	xor    (%edi),%esi
  40612a:	37                   	aaa    
  40612b:	37                   	aaa    
  40612c:	37                   	aaa    
  40612d:	37                   	aaa    
  40612e:	37                   	aaa    
  40612f:	37                   	aaa    
  406130:	37                   	aaa    
  406131:	37                   	aaa    
  406132:	37                   	aaa    
  406133:	3b 00                	cmp    (%eax),%eax
  406135:	6c                   	insb   (%dx),%es:(%edi)
  406136:	6f                   	outsl  %ds:(%esi),(%dx)
  406137:	6e                   	outsb  %ds:(%esi),(%dx)
  406138:	67 20 6c 6f          	and    %ch,0x6f(%si)
  40613c:	6e                   	outsb  %ds:(%esi),(%dx)
  40613d:	67 20 69 6e          	and    %ch,0x6e(%bx,%di)
  406141:	74 3a                	je     40617d <___crt_xc_end__+0x117d>
  406143:	74 28                	je     40616d <___crt_xc_end__+0x116d>
  406145:	30 2c 36             	xor    %ch,(%esi,%esi,1)
  406148:	29 3d 40 73 36 34    	sub    %edi,0x34367340
  40614e:	3b 72 28             	cmp    0x28(%edx),%esi
  406151:	30 2c 36             	xor    %ch,(%esi,%esi,1)
  406154:	29 3b                	sub    %edi,(%ebx)
  406156:	30 31                	xor    %dh,(%ecx)
  406158:	30 30                	xor    %dh,(%eax)
  40615a:	30 30                	xor    %dh,(%eax)
  40615c:	30 30                	xor    %dh,(%eax)
  40615e:	30 30                	xor    %dh,(%eax)
  406160:	30 30                	xor    %dh,(%eax)
  406162:	30 30                	xor    %dh,(%eax)
  406164:	30 30                	xor    %dh,(%eax)
  406166:	30 30                	xor    %dh,(%eax)
  406168:	30 30                	xor    %dh,(%eax)
  40616a:	30 30                	xor    %dh,(%eax)
  40616c:	30 3b                	xor    %bh,(%ebx)
  40616e:	30 37                	xor    %dh,(%edi)
  406170:	37                   	aaa    
  406171:	37                   	aaa    
  406172:	37                   	aaa    
  406173:	37                   	aaa    
  406174:	37                   	aaa    
  406175:	37                   	aaa    
  406176:	37                   	aaa    
  406177:	37                   	aaa    
  406178:	37                   	aaa    
  406179:	37                   	aaa    
  40617a:	37                   	aaa    
  40617b:	37                   	aaa    
  40617c:	37                   	aaa    
  40617d:	37                   	aaa    
  40617e:	37                   	aaa    
  40617f:	37                   	aaa    
  406180:	37                   	aaa    
  406181:	37                   	aaa    
  406182:	37                   	aaa    
  406183:	37                   	aaa    
  406184:	3b 00                	cmp    (%eax),%eax
  406186:	6c                   	insb   (%dx),%es:(%edi)
  406187:	6f                   	outsl  %ds:(%esi),(%dx)
  406188:	6e                   	outsb  %ds:(%esi),(%dx)
  406189:	67 20 6c 6f          	and    %ch,0x6f(%si)
  40618d:	6e                   	outsb  %ds:(%esi),(%dx)
  40618e:	67 20 75 6e          	and    %dh,0x6e(%di)
  406192:	73 69                	jae    4061fd <___crt_xc_end__+0x11fd>
  406194:	67 6e                	outsb  %ds:(%si),(%dx)
  406196:	65 64 20 69 6e       	gs and %ch,%fs:%gs:0x6e(%ecx)
  40619b:	74 3a                	je     4061d7 <___crt_xc_end__+0x11d7>
  40619d:	74 28                	je     4061c7 <___crt_xc_end__+0x11c7>
  40619f:	30 2c 37             	xor    %ch,(%edi,%esi,1)
  4061a2:	29 3d 40 73 36 34    	sub    %edi,0x34367340
  4061a8:	3b 72 28             	cmp    0x28(%edx),%esi
  4061ab:	30 2c 37             	xor    %ch,(%edi,%esi,1)
  4061ae:	29 3b                	sub    %edi,(%ebx)
  4061b0:	30 30                	xor    %dh,(%eax)
  4061b2:	30 30                	xor    %dh,(%eax)
  4061b4:	30 30                	xor    %dh,(%eax)
  4061b6:	30 30                	xor    %dh,(%eax)
  4061b8:	30 30                	xor    %dh,(%eax)
  4061ba:	30 30                	xor    %dh,(%eax)
  4061bc:	30 3b                	xor    %bh,(%ebx)
  4061be:	30 31                	xor    %dh,(%ecx)
  4061c0:	37                   	aaa    
  4061c1:	37                   	aaa    
  4061c2:	37                   	aaa    
  4061c3:	37                   	aaa    
  4061c4:	37                   	aaa    
  4061c5:	37                   	aaa    
  4061c6:	37                   	aaa    
  4061c7:	37                   	aaa    
  4061c8:	37                   	aaa    
  4061c9:	37                   	aaa    
  4061ca:	37                   	aaa    
  4061cb:	37                   	aaa    
  4061cc:	37                   	aaa    
  4061cd:	37                   	aaa    
  4061ce:	37                   	aaa    
  4061cf:	37                   	aaa    
  4061d0:	37                   	aaa    
  4061d1:	37                   	aaa    
  4061d2:	37                   	aaa    
  4061d3:	37                   	aaa    
  4061d4:	37                   	aaa    
  4061d5:	3b 00                	cmp    (%eax),%eax
  4061d7:	73 68                	jae    406241 <___crt_xc_end__+0x1241>
  4061d9:	6f                   	outsl  %ds:(%esi),(%dx)
  4061da:	72 74                	jb     406250 <___crt_xc_end__+0x1250>
  4061dc:	20 69 6e             	and    %ch,0x6e(%ecx)
  4061df:	74 3a                	je     40621b <___crt_xc_end__+0x121b>
  4061e1:	74 28                	je     40620b <___crt_xc_end__+0x120b>
  4061e3:	30 2c 38             	xor    %ch,(%eax,%edi,1)
  4061e6:	29 3d 40 73 31 36    	sub    %edi,0x36317340
  4061ec:	3b 72 28             	cmp    0x28(%edx),%esi
  4061ef:	30 2c 38             	xor    %ch,(%eax,%edi,1)
  4061f2:	29 3b                	sub    %edi,(%ebx)
  4061f4:	2d 33 32 37 36       	sub    $0x36373233,%eax
  4061f9:	38 3b                	cmp    %bh,(%ebx)
  4061fb:	33 32                	xor    (%edx),%esi
  4061fd:	37                   	aaa    
  4061fe:	36                   	ss
  4061ff:	37                   	aaa    
  406200:	3b 00                	cmp    (%eax),%eax
  406202:	73 68                	jae    40626c <___crt_xc_end__+0x126c>
  406204:	6f                   	outsl  %ds:(%esi),(%dx)
  406205:	72 74                	jb     40627b <___crt_xc_end__+0x127b>
  406207:	20 75 6e             	and    %dh,0x6e(%ebp)
  40620a:	73 69                	jae    406275 <___crt_xc_end__+0x1275>
  40620c:	67 6e                	outsb  %ds:(%si),(%dx)
  40620e:	65 64 20 69 6e       	gs and %ch,%fs:%gs:0x6e(%ecx)
  406213:	74 3a                	je     40624f <___crt_xc_end__+0x124f>
  406215:	74 28                	je     40623f <___crt_xc_end__+0x123f>
  406217:	30 2c 39             	xor    %ch,(%ecx,%edi,1)
  40621a:	29 3d 40 73 31 36    	sub    %edi,0x36317340
  406220:	3b 72 28             	cmp    0x28(%edx),%esi
  406223:	30 2c 39             	xor    %ch,(%ecx,%edi,1)
  406226:	29 3b                	sub    %edi,(%ebx)
  406228:	30 3b                	xor    %bh,(%ebx)
  40622a:	36                   	ss
  40622b:	35 35 33 35 3b       	xor    $0x3b353335,%eax
  406230:	00 73 69             	add    %dh,0x69(%ebx)
  406233:	67 6e                	outsb  %ds:(%si),(%dx)
  406235:	65 64 20 63 68       	gs and %ah,%fs:%gs:0x68(%ebx)
  40623a:	61                   	popa   
  40623b:	72 3a                	jb     406277 <___crt_xc_end__+0x1277>
  40623d:	74 28                	je     406267 <___crt_xc_end__+0x1267>
  40623f:	30 2c 31             	xor    %ch,(%ecx,%esi,1)
  406242:	30 29                	xor    %ch,(%ecx)
  406244:	3d 40 73 38 3b       	cmp    $0x3b387340,%eax
  406249:	72 28                	jb     406273 <___crt_xc_end__+0x1273>
  40624b:	30 2c 31             	xor    %ch,(%ecx,%esi,1)
  40624e:	30 29                	xor    %ch,(%ecx)
  406250:	3b 2d 31 32 38 3b    	cmp    0x3b383231,%ebp
  406256:	31 32                	xor    %esi,(%edx)
  406258:	37                   	aaa    
  406259:	3b 00                	cmp    (%eax),%eax
  40625b:	75 6e                	jne    4062cb <___crt_xc_end__+0x12cb>
  40625d:	73 69                	jae    4062c8 <___crt_xc_end__+0x12c8>
  40625f:	67 6e                	outsb  %ds:(%si),(%dx)
  406261:	65 64 20 63 68       	gs and %ah,%fs:%gs:0x68(%ebx)
  406266:	61                   	popa   
  406267:	72 3a                	jb     4062a3 <___crt_xc_end__+0x12a3>
  406269:	74 28                	je     406293 <___crt_xc_end__+0x1293>
  40626b:	30 2c 31             	xor    %ch,(%ecx,%esi,1)
  40626e:	31 29                	xor    %ebp,(%ecx)
  406270:	3d 40 73 38 3b       	cmp    $0x3b387340,%eax
  406275:	72 28                	jb     40629f <___crt_xc_end__+0x129f>
  406277:	30 2c 31             	xor    %ch,(%ecx,%esi,1)
  40627a:	31 29                	xor    %ebp,(%ecx)
  40627c:	3b 30                	cmp    (%eax),%esi
  40627e:	3b 32                	cmp    (%edx),%esi
  406280:	35 35 3b 00 66       	xor    $0x66003b35,%eax
  406285:	6c                   	insb   (%dx),%es:(%edi)
  406286:	6f                   	outsl  %ds:(%esi),(%dx)
  406287:	61                   	popa   
  406288:	74 3a                	je     4062c4 <___crt_xc_end__+0x12c4>
  40628a:	74 28                	je     4062b4 <___crt_xc_end__+0x12b4>
  40628c:	30 2c 31             	xor    %ch,(%ecx,%esi,1)
  40628f:	32 29                	xor    (%ecx),%ch
  406291:	3d 72 28 30 2c       	cmp    $0x2c302872,%eax
  406296:	31 29                	xor    %ebp,(%ecx)
  406298:	3b 34 3b             	cmp    (%ebx,%edi,1),%esi
  40629b:	30 3b                	xor    %bh,(%ebx)
  40629d:	00 64 6f 75          	add    %ah,0x75(%edi,%ebp,2)
  4062a1:	62 6c 65 3a          	bound  %ebp,0x3a(%ebp,%eiz,2)
  4062a5:	74 28                	je     4062cf <___crt_xc_end__+0x12cf>
  4062a7:	30 2c 31             	xor    %ch,(%ecx,%esi,1)
  4062aa:	33 29                	xor    (%ecx),%ebp
  4062ac:	3d 72 28 30 2c       	cmp    $0x2c302872,%eax
  4062b1:	31 29                	xor    %ebp,(%ecx)
  4062b3:	3b 38                	cmp    (%eax),%edi
  4062b5:	3b 30                	cmp    (%eax),%esi
  4062b7:	3b 00                	cmp    (%eax),%eax
  4062b9:	6c                   	insb   (%dx),%es:(%edi)
  4062ba:	6f                   	outsl  %ds:(%esi),(%dx)
  4062bb:	6e                   	outsb  %ds:(%esi),(%dx)
  4062bc:	67 20 64 6f          	and    %ah,0x6f(%si)
  4062c0:	75 62                	jne    406324 <___crt_xc_end__+0x1324>
  4062c2:	6c                   	insb   (%dx),%es:(%edi)
  4062c3:	65 3a 74 28 30       	cmp    %gs:0x30(%eax,%ebp,1),%dh
  4062c8:	2c 31                	sub    $0x31,%al
  4062ca:	34 29                	xor    $0x29,%al
  4062cc:	3d 72 28 30 2c       	cmp    $0x2c302872,%eax
  4062d1:	31 29                	xor    %ebp,(%ecx)
  4062d3:	3b 31                	cmp    (%ecx),%esi
  4062d5:	32 3b                	xor    (%ebx),%bh
  4062d7:	30 3b                	xor    %bh,(%ebx)
  4062d9:	00 63 6f             	add    %ah,0x6f(%ebx)
  4062dc:	6d                   	insl   (%dx),%es:(%edi)
  4062dd:	70 6c                	jo     40634b <___crt_xc_end__+0x134b>
  4062df:	65                   	gs
  4062e0:	78 20                	js     406302 <___crt_xc_end__+0x1302>
  4062e2:	69 6e 74 3a 74 28 30 	imul   $0x3028743a,0x74(%esi),%ebp
  4062e9:	2c 31                	sub    $0x31,%al
  4062eb:	35 29 3d 73 38       	xor    $0x38733d29,%eax
  4062f0:	72 65                	jb     406357 <___crt_xc_end__+0x1357>
  4062f2:	61                   	popa   
  4062f3:	6c                   	insb   (%dx),%es:(%edi)
  4062f4:	3a 28                	cmp    (%eax),%ch
  4062f6:	30 2c 31             	xor    %ch,(%ecx,%esi,1)
  4062f9:	29 2c 30             	sub    %ebp,(%eax,%esi,1)
  4062fc:	2c 33                	sub    $0x33,%al
  4062fe:	32 3b                	xor    (%ebx),%bh
  406300:	69 6d 61 67 3a 28 30 	imul   $0x30283a67,0x61(%ebp),%ebp
  406307:	2c 31                	sub    $0x31,%al
  406309:	29 2c 33             	sub    %ebp,(%ebx,%esi,1)
  40630c:	32 2c 33             	xor    (%ebx,%esi,1),%ch
  40630f:	32 3b                	xor    (%ebx),%bh
  406311:	3b 00                	cmp    (%eax),%eax
  406313:	63 6f 6d             	arpl   %bp,0x6d(%edi)
  406316:	70 6c                	jo     406384 <___crt_xc_end__+0x1384>
  406318:	65                   	gs
  406319:	78 20                	js     40633b <___crt_xc_end__+0x133b>
  40631b:	66                   	data16
  40631c:	6c                   	insb   (%dx),%es:(%edi)
  40631d:	6f                   	outsl  %ds:(%esi),(%dx)
  40631e:	61                   	popa   
  40631f:	74 3a                	je     40635b <___crt_xc_end__+0x135b>
  406321:	74 28                	je     40634b <___crt_xc_end__+0x134b>
  406323:	30 2c 31             	xor    %ch,(%ecx,%esi,1)
  406326:	36 29 3d 52 33 3b 38 	sub    %edi,%ss:0x383b3352
  40632d:	3b 30                	cmp    (%eax),%esi
  40632f:	3b 00                	cmp    (%eax),%eax
  406331:	63 6f 6d             	arpl   %bp,0x6d(%edi)
  406334:	70 6c                	jo     4063a2 <___crt_xc_end__+0x13a2>
  406336:	65                   	gs
  406337:	78 20                	js     406359 <___crt_xc_end__+0x1359>
  406339:	64 6f                	outsl  %fs:(%esi),(%dx)
  40633b:	75 62                	jne    40639f <___crt_xc_end__+0x139f>
  40633d:	6c                   	insb   (%dx),%es:(%edi)
  40633e:	65 3a 74 28 30       	cmp    %gs:0x30(%eax,%ebp,1),%dh
  406343:	2c 31                	sub    $0x31,%al
  406345:	37                   	aaa    
  406346:	29 3d 52 33 3b 31    	sub    %edi,0x313b3352
  40634c:	36 3b 30             	cmp    %ss:(%eax),%esi
  40634f:	3b 00                	cmp    (%eax),%eax
  406351:	63 6f 6d             	arpl   %bp,0x6d(%edi)
  406354:	70 6c                	jo     4063c2 <___crt_xc_end__+0x13c2>
  406356:	65                   	gs
  406357:	78 20                	js     406379 <___crt_xc_end__+0x1379>
  406359:	6c                   	insb   (%dx),%es:(%edi)
  40635a:	6f                   	outsl  %ds:(%esi),(%dx)
  40635b:	6e                   	outsb  %ds:(%esi),(%dx)
  40635c:	67 20 64 6f          	and    %ah,0x6f(%si)
  406360:	75 62                	jne    4063c4 <___crt_xc_end__+0x13c4>
  406362:	6c                   	insb   (%dx),%es:(%edi)
  406363:	65 3a 74 28 30       	cmp    %gs:0x30(%eax,%ebp,1),%dh
  406368:	2c 31                	sub    $0x31,%al
  40636a:	38 29                	cmp    %ch,(%ecx)
  40636c:	3d 52 33 3b 32       	cmp    $0x323b3352,%eax
  406371:	34 3b                	xor    $0x3b,%al
  406373:	30 3b                	xor    %bh,(%ebx)
  406375:	00 76 6f             	add    %dh,0x6f(%esi)
  406378:	69 64 3a 74 28 30 2c 	imul   $0x312c3028,0x74(%edx,%edi,1),%esp
  40637f:	31 
  406380:	39 29                	cmp    %ebp,(%ecx)
  406382:	3d 28 30 2c 31       	cmp    $0x312c3028,%eax
  406387:	39 29                	cmp    %ebp,(%ecx)
  406389:	00 5f 5f             	add    %bl,0x5f(%edi)
  40638c:	62 75 69             	bound  %esi,0x69(%ebp)
  40638f:	6c                   	insb   (%dx),%es:(%edi)
  406390:	74 69                	je     4063fb <___crt_xc_end__+0x13fb>
  406392:	6e                   	outsb  %ds:(%esi),(%dx)
  406393:	5f                   	pop    %edi
  406394:	76 61                	jbe    4063f7 <___crt_xc_end__+0x13f7>
  406396:	5f                   	pop    %edi
  406397:	6c                   	insb   (%dx),%es:(%edi)
  406398:	69 73 74 3a 74 28 30 	imul   $0x3028743a,0x74(%ebx),%esi
  40639f:	2c 32                	sub    $0x32,%al
  4063a1:	30 29                	xor    %ch,(%ecx)
  4063a3:	3d 2a 28 30 2c       	cmp    $0x2c30282a,%eax
  4063a8:	32 29                	xor    (%ecx),%ch
  4063aa:	00 5f 42             	add    %bl,0x42(%edi)
  4063ad:	6f                   	outsl  %ds:(%esi),(%dx)
  4063ae:	6f                   	outsl  %ds:(%esi),(%dx)
  4063af:	6c                   	insb   (%dx),%es:(%edi)
  4063b0:	3a 74 28 30          	cmp    0x30(%eax,%ebp,1),%dh
  4063b4:	2c 32                	sub    $0x32,%al
  4063b6:	31 29                	xor    %ebp,(%ecx)
  4063b8:	3d 40 73 38 3b       	cmp    $0x3b387340,%eax
  4063bd:	2d 31 36 00 2f       	sub    $0x2f003631,%eax
  4063c2:	75 73                	jne    406437 <___crt_xc_end__+0x1437>
  4063c4:	72 2f                	jb     4063f5 <___crt_xc_end__+0x13f5>
  4063c6:	69 6e 63 6c 75 64 65 	imul   $0x6564756c,0x63(%esi),%ebp
  4063cd:	2f                   	das    
  4063ce:	73 74                	jae    406444 <___crt_xc_end__+0x1444>
  4063d0:	64 69 6f 2e 68 00 2f 	imul   $0x752f0068,%fs:0x2e(%edi),%ebp
  4063d7:	75 
  4063d8:	73 72                	jae    40644c <___crt_xc_end__+0x144c>
  4063da:	2f                   	das    
  4063db:	6c                   	insb   (%dx),%es:(%edi)
  4063dc:	69 62 2f 67 63 63 2f 	imul   $0x2f636367,0x2f(%edx),%esp
  4063e3:	69 36 38 36 2d 70    	imul   $0x702d3638,(%esi),%esi
  4063e9:	63 2d 63 79 67 77    	arpl   %bp,0x77677963
  4063ef:	69 6e 2f 33 2e 34 2e 	imul   $0x2e342e33,0x2f(%esi),%ebp
  4063f6:	34 2f                	xor    $0x2f,%al
  4063f8:	69 6e 63 6c 75 64 65 	imul   $0x6564756c,0x63(%esi),%ebp
  4063ff:	2f                   	das    
  406400:	73 74                	jae    406476 <___crt_xc_end__+0x1476>
  406402:	64                   	fs
  406403:	64                   	fs
  406404:	65                   	gs
  406405:	66                   	data16
  406406:	2e                   	cs
  406407:	68 00 73 69 7a       	push   $0x7a697300
  40640c:	65                   	gs
  40640d:	5f                   	pop    %edi
  40640e:	74 3a                	je     40644a <___crt_xc_end__+0x144a>
  406410:	74 28                	je     40643a <___crt_xc_end__+0x143a>
  406412:	32 2c 31             	xor    (%ecx,%esi,1),%ch
  406415:	29 3d 28 30 2c 34    	sub    %edi,0x342c3028
  40641b:	29 00                	sub    %eax,(%eax)
  40641d:	2f                   	das    
  40641e:	75 73                	jne    406493 <___crt_xc_end__+0x1493>
  406420:	72 2f                	jb     406451 <___crt_xc_end__+0x1451>
  406422:	6c                   	insb   (%dx),%es:(%edi)
  406423:	69 62 2f 67 63 63 2f 	imul   $0x2f636367,0x2f(%edx),%esp
  40642a:	69 36 38 36 2d 70    	imul   $0x702d3638,(%esi),%esi
  406430:	63 2d 63 79 67 77    	arpl   %bp,0x77677963
  406436:	69 6e 2f 33 2e 34 2e 	imul   $0x2e342e33,0x2f(%esi),%ebp
  40643d:	34 2f                	xor    $0x2f,%al
  40643f:	69 6e 63 6c 75 64 65 	imul   $0x6564756c,0x63(%esi),%ebp
  406446:	2f                   	das    
  406447:	73 74                	jae    4064bd <___crt_xc_end__+0x14bd>
  406449:	64                   	fs
  40644a:	61                   	popa   
  40644b:	72 67                	jb     4064b4 <___crt_xc_end__+0x14b4>
  40644d:	2e                   	cs
  40644e:	68 00 5f 5f 67       	push   $0x675f5f00
  406453:	6e                   	outsb  %ds:(%esi),(%dx)
  406454:	75 63                	jne    4064b9 <___crt_xc_end__+0x14b9>
  406456:	5f                   	pop    %edi
  406457:	76 61                	jbe    4064ba <___crt_xc_end__+0x14ba>
  406459:	5f                   	pop    %edi
  40645a:	6c                   	insb   (%dx),%es:(%edi)
  40645b:	69 73 74 3a 74 28 33 	imul   $0x3328743a,0x74(%ebx),%esi
  406462:	2c 31                	sub    $0x31,%al
  406464:	29 3d 28 30 2c 32    	sub    %edi,0x322c3028
  40646a:	30 29                	xor    %ch,(%ecx)
  40646c:	00 2f                	add    %ch,(%edi)
  40646e:	75 73                	jne    4064e3 <___crt_xc_end__+0x14e3>
  406470:	72 2f                	jb     4064a1 <___crt_xc_end__+0x14a1>
  406472:	69 6e 63 6c 75 64 65 	imul   $0x6564756c,0x63(%esi),%ebp
  406479:	2f                   	das    
  40647a:	73 79                	jae    4064f5 <___crt_xc_end__+0x14f5>
  40647c:	73 2f                	jae    4064ad <___crt_xc_end__+0x14ad>
  40647e:	72 65                	jb     4064e5 <___crt_xc_end__+0x14e5>
  406480:	65 6e                	outsb  %gs:(%esi),(%dx)
  406482:	74 2e                	je     4064b2 <___crt_xc_end__+0x14b2>
  406484:	68 00 2f 75 73       	push   $0x73752f00
  406489:	72 2f                	jb     4064ba <___crt_xc_end__+0x14ba>
  40648b:	69 6e 63 6c 75 64 65 	imul   $0x6564756c,0x63(%esi),%ebp
  406492:	2f                   	das    
  406493:	73 79                	jae    40650e <___crt_xc_end__+0x150e>
  406495:	73 2f                	jae    4064c6 <___crt_xc_end__+0x14c6>
  406497:	5f                   	pop    %edi
  406498:	74 79                	je     406513 <___crt_xc_end__+0x1513>
  40649a:	70 65                	jo     406501 <___crt_xc_end__+0x1501>
  40649c:	73 2e                	jae    4064cc <___crt_xc_end__+0x14cc>
  40649e:	68 00 2f 75 73       	push   $0x73752f00
  4064a3:	72 2f                	jb     4064d4 <___crt_xc_end__+0x14d4>
  4064a5:	69 6e 63 6c 75 64 65 	imul   $0x6564756c,0x63(%esi),%ebp
  4064ac:	2f                   	das    
  4064ad:	6d                   	insl   (%dx),%es:(%edi)
  4064ae:	61                   	popa   
  4064af:	63 68 69             	arpl   %bp,0x69(%eax)
  4064b2:	6e                   	outsb  %ds:(%esi),(%dx)
  4064b3:	65                   	gs
  4064b4:	2f                   	das    
  4064b5:	5f                   	pop    %edi
  4064b6:	74 79                	je     406531 <___crt_xc_end__+0x1531>
  4064b8:	70 65                	jo     40651f <___crt_xc_end__+0x151f>
  4064ba:	73 2e                	jae    4064ea <___crt_xc_end__+0x14ea>
  4064bc:	68 00 2f 75 73       	push   $0x73752f00
  4064c1:	72 2f                	jb     4064f2 <___crt_xc_end__+0x14f2>
  4064c3:	69 6e 63 6c 75 64 65 	imul   $0x6564756c,0x63(%esi),%ebp
  4064ca:	2f                   	das    
  4064cb:	6d                   	insl   (%dx),%es:(%edi)
  4064cc:	61                   	popa   
  4064cd:	63 68 69             	arpl   %bp,0x69(%eax)
  4064d0:	6e                   	outsb  %ds:(%esi),(%dx)
  4064d1:	65                   	gs
  4064d2:	2f                   	das    
  4064d3:	5f                   	pop    %edi
  4064d4:	64                   	fs
  4064d5:	65                   	gs
  4064d6:	66 61                	popaw  
  4064d8:	75 6c                	jne    406546 <___crt_xc_end__+0x1546>
  4064da:	74 5f                	je     40653b <___crt_xc_end__+0x153b>
  4064dc:	74 79                	je     406557 <___crt_xc_end__+0x1557>
  4064de:	70 65                	jo     406545 <___crt_xc_end__+0x1545>
  4064e0:	73 2e                	jae    406510 <___crt_xc_end__+0x1510>
  4064e2:	68 00 5f 5f 69       	push   $0x695f5f00
  4064e7:	6e                   	outsb  %ds:(%esi),(%dx)
  4064e8:	74 38                	je     406522 <___crt_xc_end__+0x1522>
  4064ea:	5f                   	pop    %edi
  4064eb:	74 3a                	je     406527 <___crt_xc_end__+0x1527>
  4064ed:	74 28                	je     406517 <___crt_xc_end__+0x1517>
  4064ef:	37                   	aaa    
  4064f0:	2c 31                	sub    $0x31,%al
  4064f2:	29 3d 28 30 2c 31    	sub    %edi,0x312c3028
  4064f8:	30 29                	xor    %ch,(%ecx)
  4064fa:	00 5f 5f             	add    %bl,0x5f(%edi)
  4064fd:	75 69                	jne    406568 <___crt_xc_end__+0x1568>
  4064ff:	6e                   	outsb  %ds:(%esi),(%dx)
  406500:	74 38                	je     40653a <___crt_xc_end__+0x153a>
  406502:	5f                   	pop    %edi
  406503:	74 3a                	je     40653f <___crt_xc_end__+0x153f>
  406505:	74 28                	je     40652f <___crt_xc_end__+0x152f>
  406507:	37                   	aaa    
  406508:	2c 32                	sub    $0x32,%al
  40650a:	29 3d 28 30 2c 31    	sub    %edi,0x312c3028
  406510:	31 29                	xor    %ebp,(%ecx)
  406512:	00 5f 5f             	add    %bl,0x5f(%edi)
  406515:	69 6e 74 31 36 5f 74 	imul   $0x745f3631,0x74(%esi),%ebp
  40651c:	3a 74 28 37          	cmp    0x37(%eax,%ebp,1),%dh
  406520:	2c 33                	sub    $0x33,%al
  406522:	29 3d 28 30 2c 38    	sub    %edi,0x382c3028
  406528:	29 00                	sub    %eax,(%eax)
  40652a:	5f                   	pop    %edi
  40652b:	5f                   	pop    %edi
  40652c:	75 69                	jne    406597 <___crt_xc_end__+0x1597>
  40652e:	6e                   	outsb  %ds:(%esi),(%dx)
  40652f:	74 31                	je     406562 <___crt_xc_end__+0x1562>
  406531:	36                   	ss
  406532:	5f                   	pop    %edi
  406533:	74 3a                	je     40656f <___crt_xc_end__+0x156f>
  406535:	74 28                	je     40655f <___crt_xc_end__+0x155f>
  406537:	37                   	aaa    
  406538:	2c 34                	sub    $0x34,%al
  40653a:	29 3d 28 30 2c 39    	sub    %edi,0x392c3028
  406540:	29 00                	sub    %eax,(%eax)
  406542:	5f                   	pop    %edi
  406543:	5f                   	pop    %edi
  406544:	69 6e 74 5f 6c 65 61 	imul   $0x61656c5f,0x74(%esi),%ebp
  40654b:	73 74                	jae    4065c1 <___crt_xc_end__+0x15c1>
  40654d:	31 36                	xor    %esi,(%esi)
  40654f:	5f                   	pop    %edi
  406550:	74 3a                	je     40658c <___crt_xc_end__+0x158c>
  406552:	74 28                	je     40657c <___crt_xc_end__+0x157c>
  406554:	37                   	aaa    
  406555:	2c 35                	sub    $0x35,%al
  406557:	29 3d 28 37 2c 33    	sub    %edi,0x332c3728
  40655d:	29 00                	sub    %eax,(%eax)
  40655f:	5f                   	pop    %edi
  406560:	5f                   	pop    %edi
  406561:	75 69                	jne    4065cc <___crt_xc_end__+0x15cc>
  406563:	6e                   	outsb  %ds:(%esi),(%dx)
  406564:	74 5f                	je     4065c5 <___crt_xc_end__+0x15c5>
  406566:	6c                   	insb   (%dx),%es:(%edi)
  406567:	65                   	gs
  406568:	61                   	popa   
  406569:	73 74                	jae    4065df <___crt_xc_end__+0x15df>
  40656b:	31 36                	xor    %esi,(%esi)
  40656d:	5f                   	pop    %edi
  40656e:	74 3a                	je     4065aa <___crt_xc_end__+0x15aa>
  406570:	74 28                	je     40659a <___crt_xc_end__+0x159a>
  406572:	37                   	aaa    
  406573:	2c 36                	sub    $0x36,%al
  406575:	29 3d 28 37 2c 34    	sub    %edi,0x342c3728
  40657b:	29 00                	sub    %eax,(%eax)
  40657d:	5f                   	pop    %edi
  40657e:	5f                   	pop    %edi
  40657f:	69 6e 74 33 32 5f 74 	imul   $0x745f3233,0x74(%esi),%ebp
  406586:	3a 74 28 37          	cmp    0x37(%eax,%ebp,1),%dh
  40658a:	2c 37                	sub    $0x37,%al
  40658c:	29 3d 28 30 2c 31    	sub    %edi,0x312c3028
  406592:	29 00                	sub    %eax,(%eax)
  406594:	5f                   	pop    %edi
  406595:	5f                   	pop    %edi
  406596:	75 69                	jne    406601 <___crt_xc_end__+0x1601>
  406598:	6e                   	outsb  %ds:(%esi),(%dx)
  406599:	74 33                	je     4065ce <___crt_xc_end__+0x15ce>
  40659b:	32 5f 74             	xor    0x74(%edi),%bl
  40659e:	3a 74 28 37          	cmp    0x37(%eax,%ebp,1),%dh
  4065a2:	2c 38                	sub    $0x38,%al
  4065a4:	29 3d 28 30 2c 34    	sub    %edi,0x342c3028
  4065aa:	29 00                	sub    %eax,(%eax)
  4065ac:	5f                   	pop    %edi
  4065ad:	5f                   	pop    %edi
  4065ae:	69 6e 74 5f 6c 65 61 	imul   $0x61656c5f,0x74(%esi),%ebp
  4065b5:	73 74                	jae    40662b <___crt_xc_end__+0x162b>
  4065b7:	33 32                	xor    (%edx),%esi
  4065b9:	5f                   	pop    %edi
  4065ba:	74 3a                	je     4065f6 <___crt_xc_end__+0x15f6>
  4065bc:	74 28                	je     4065e6 <___crt_xc_end__+0x15e6>
  4065be:	37                   	aaa    
  4065bf:	2c 39                	sub    $0x39,%al
  4065c1:	29 3d 28 37 2c 37    	sub    %edi,0x372c3728
  4065c7:	29 00                	sub    %eax,(%eax)
  4065c9:	5f                   	pop    %edi
  4065ca:	5f                   	pop    %edi
  4065cb:	75 69                	jne    406636 <___crt_xc_end__+0x1636>
  4065cd:	6e                   	outsb  %ds:(%esi),(%dx)
  4065ce:	74 5f                	je     40662f <___crt_xc_end__+0x162f>
  4065d0:	6c                   	insb   (%dx),%es:(%edi)
  4065d1:	65                   	gs
  4065d2:	61                   	popa   
  4065d3:	73 74                	jae    406649 <___crt_xc_end__+0x1649>
  4065d5:	33 32                	xor    (%edx),%esi
  4065d7:	5f                   	pop    %edi
  4065d8:	74 3a                	je     406614 <___crt_xc_end__+0x1614>
  4065da:	74 28                	je     406604 <___crt_xc_end__+0x1604>
  4065dc:	37                   	aaa    
  4065dd:	2c 31                	sub    $0x31,%al
  4065df:	30 29                	xor    %ch,(%ecx)
  4065e1:	3d 28 37 2c 38       	cmp    $0x382c3728,%eax
  4065e6:	29 00                	sub    %eax,(%eax)
  4065e8:	5f                   	pop    %edi
  4065e9:	5f                   	pop    %edi
  4065ea:	69 6e 74 36 34 5f 74 	imul   $0x745f3436,0x74(%esi),%ebp
  4065f1:	3a 74 28 37          	cmp    0x37(%eax,%ebp,1),%dh
  4065f5:	2c 31                	sub    $0x31,%al
  4065f7:	31 29                	xor    %ebp,(%ecx)
  4065f9:	3d 28 30 2c 36       	cmp    $0x362c3028,%eax
  4065fe:	29 00                	sub    %eax,(%eax)
  406600:	5f                   	pop    %edi
  406601:	5f                   	pop    %edi
  406602:	75 69                	jne    40666d <___crt_xc_end__+0x166d>
  406604:	6e                   	outsb  %ds:(%esi),(%dx)
  406605:	74 36                	je     40663d <___crt_xc_end__+0x163d>
  406607:	34 5f                	xor    $0x5f,%al
  406609:	74 3a                	je     406645 <___crt_xc_end__+0x1645>
  40660b:	74 28                	je     406635 <___crt_xc_end__+0x1635>
  40660d:	37                   	aaa    
  40660e:	2c 31                	sub    $0x31,%al
  406610:	32 29                	xor    (%ecx),%ch
  406612:	3d 28 30 2c 37       	cmp    $0x372c3028,%eax
  406617:	29 00                	sub    %eax,(%eax)
  406619:	2f                   	das    
  40661a:	75 73                	jne    40668f <___crt_xc_end__+0x168f>
  40661c:	72 2f                	jb     40664d <___crt_xc_end__+0x164d>
  40661e:	69 6e 63 6c 75 64 65 	imul   $0x6564756c,0x63(%esi),%ebp
  406625:	2f                   	das    
  406626:	73 79                	jae    4066a1 <___crt_xc_end__+0x16a1>
  406628:	73 2f                	jae    406659 <___crt_xc_end__+0x1659>
  40662a:	6c                   	insb   (%dx),%es:(%edi)
  40662b:	6f                   	outsl  %ds:(%esi),(%dx)
  40662c:	63 6b 2e             	arpl   %bp,0x2e(%ebx)
  40662f:	68 00 5f 4c 4f       	push   $0x4f4c5f00
  406634:	43                   	inc    %ebx
  406635:	4b                   	dec    %ebx
  406636:	5f                   	pop    %edi
  406637:	54                   	push   %esp
  406638:	3a 74 28 38          	cmp    0x38(%eax,%ebp,1),%dh
  40663c:	2c 31                	sub    $0x31,%al
  40663e:	29 3d 28 38 2c 32    	sub    %edi,0x322c3828
  406644:	29 3d 2a 28 30 2c    	sub    %edi,0x2c30282a
  40664a:	31 39                	xor    %edi,(%ecx)
  40664c:	29 00                	sub    %eax,(%eax)
  40664e:	5f                   	pop    %edi
  40664f:	6f                   	outsl  %ds:(%esi),(%dx)
  406650:	66 66 5f             	data32 pop %di
  406653:	74 3a                	je     40668f <___crt_xc_end__+0x168f>
  406655:	74 28                	je     40667f <___crt_xc_end__+0x167f>
  406657:	35 2c 31 29 3d       	xor    $0x3d29312c,%eax
  40665c:	28 30                	sub    %dh,(%eax)
  40665e:	2c 33                	sub    $0x33,%al
  406660:	29 00                	sub    %eax,(%eax)
  406662:	5f                   	pop    %edi
  406663:	5f                   	pop    %edi
  406664:	64                   	fs
  406665:	65                   	gs
  406666:	76 5f                	jbe    4066c7 <___crt_xc_end__+0x16c7>
  406668:	74 3a                	je     4066a4 <___crt_xc_end__+0x16a4>
  40666a:	74 28                	je     406694 <___crt_xc_end__+0x1694>
  40666c:	35 2c 32 29 3d       	xor    $0x3d29322c,%eax
  406671:	28 30                	sub    %dh,(%eax)
  406673:	2c 38                	sub    $0x38,%al
  406675:	29 00                	sub    %eax,(%eax)
  406677:	5f                   	pop    %edi
  406678:	5f                   	pop    %edi
  406679:	75 69                	jne    4066e4 <___crt_xc_end__+0x16e4>
  40667b:	64                   	fs
  40667c:	5f                   	pop    %edi
  40667d:	74 3a                	je     4066b9 <___crt_xc_end__+0x16b9>
  40667f:	74 28                	je     4066a9 <___crt_xc_end__+0x16a9>
  406681:	35 2c 33 29 3d       	xor    $0x3d29332c,%eax
  406686:	28 30                	sub    %dh,(%eax)
  406688:	2c 39                	sub    $0x39,%al
  40668a:	29 00                	sub    %eax,(%eax)
  40668c:	5f                   	pop    %edi
  40668d:	5f                   	pop    %edi
  40668e:	67 69 64 5f 74 3a 74 	imul   $0x28743a74,0x5f(%si),%esp
  406695:	28 
  406696:	35 2c 34 29 3d       	xor    $0x3d29342c,%eax
  40669b:	28 30                	sub    %dh,(%eax)
  40669d:	2c 39                	sub    $0x39,%al
  40669f:	29 00                	sub    %eax,(%eax)
  4066a1:	5f                   	pop    %edi
  4066a2:	6f                   	outsl  %ds:(%esi),(%dx)
  4066a3:	66                   	data16
  4066a4:	66                   	data16
  4066a5:	36                   	ss
  4066a6:	34 5f                	xor    $0x5f,%al
  4066a8:	74 3a                	je     4066e4 <___crt_xc_end__+0x16e4>
  4066aa:	74 28                	je     4066d4 <___crt_xc_end__+0x16d4>
  4066ac:	35 2c 35 29 3d       	xor    $0x3d29352c,%eax
  4066b1:	28 30                	sub    %dh,(%eax)
  4066b3:	2c 36                	sub    $0x36,%al
  4066b5:	29 00                	sub    %eax,(%eax)
  4066b7:	5f                   	pop    %edi
  4066b8:	66                   	data16
  4066b9:	70 6f                	jo     40672a <___crt_xc_end__+0x172a>
  4066bb:	73 5f                	jae    40671c <___crt_xc_end__+0x171c>
  4066bd:	74 3a                	je     4066f9 <___crt_xc_end__+0x16f9>
  4066bf:	74 28                	je     4066e9 <___crt_xc_end__+0x16e9>
  4066c1:	35 2c 36 29 3d       	xor    $0x3d29362c,%eax
  4066c6:	28 30                	sub    %dh,(%eax)
  4066c8:	2c 33                	sub    $0x33,%al
  4066ca:	29 00                	sub    %eax,(%eax)
  4066cc:	5f                   	pop    %edi
  4066cd:	66                   	data16
  4066ce:	70 6f                	jo     40673f <___crt_xc_end__+0x173f>
  4066d0:	73 36                	jae    406708 <___crt_xc_end__+0x1708>
  4066d2:	34 5f                	xor    $0x5f,%al
  4066d4:	74 3a                	je     406710 <___crt_xc_end__+0x1710>
  4066d6:	74 28                	je     406700 <___crt_xc_end__+0x1700>
  4066d8:	35 2c 37 29 3d       	xor    $0x3d29372c,%eax
  4066dd:	28 35 2c 35 29 00    	sub    %dh,0x29352c
  4066e3:	5f                   	pop    %edi
  4066e4:	73 73                	jae    406759 <___crt_xc_end__+0x1759>
  4066e6:	69 7a 65 5f 74 3a 74 	imul   $0x743a745f,0x65(%edx),%edi
  4066ed:	28 35 2c 38 29 3d    	sub    %dh,0x3d29382c
  4066f3:	28 30                	sub    %dh,(%eax)
  4066f5:	2c 31                	sub    $0x31,%al
  4066f7:	29 00                	sub    %eax,(%eax)
  4066f9:	77 69                	ja     406764 <___crt_xc_end__+0x1764>
  4066fb:	6e                   	outsb  %ds:(%esi),(%dx)
  4066fc:	74 5f                	je     40675d <___crt_xc_end__+0x175d>
  4066fe:	74 3a                	je     40673a <___crt_xc_end__+0x173a>
  406700:	74 28                	je     40672a <___crt_xc_end__+0x172a>
  406702:	39 2c 31             	cmp    %ebp,(%ecx,%esi,1)
  406705:	29 3d 28 30 2c 34    	sub    %edi,0x342c3028
  40670b:	29 00                	sub    %eax,(%eax)
  40670d:	5f                   	pop    %edi
  40670e:	6d                   	insl   (%dx),%es:(%edi)
  40670f:	62 73 74             	bound  %esi,0x74(%ebx)
  406712:	61                   	popa   
  406713:	74 65                	je     40677a <___crt_xc_end__+0x177a>
  406715:	5f                   	pop    %edi
  406716:	74 3a                	je     406752 <___crt_xc_end__+0x1752>
  406718:	74 28                	je     406742 <___crt_xc_end__+0x1742>
  40671a:	35 2c 39 29 3d       	xor    $0x3d29392c,%eax
  40671f:	28 35 2c 31 30 29    	sub    %dh,0x2930312c
  406725:	3d 73 38 5f 5f       	cmp    $0x5f5f3873,%eax
  40672a:	63 6f 75             	arpl   %bp,0x75(%edi)
  40672d:	6e                   	outsb  %ds:(%esi),(%dx)
  40672e:	74 3a                	je     40676a <___crt_xc_end__+0x176a>
  406730:	28 30                	sub    %dh,(%eax)
  406732:	2c 31                	sub    $0x31,%al
  406734:	29 2c 30             	sub    %ebp,(%eax,%esi,1)
  406737:	2c 33                	sub    $0x33,%al
  406739:	32 3b                	xor    (%ebx),%bh
  40673b:	5f                   	pop    %edi
  40673c:	5f                   	pop    %edi
  40673d:	76 61                	jbe    4067a0 <___crt_xc_end__+0x17a0>
  40673f:	6c                   	insb   (%dx),%es:(%edi)
  406740:	75 65                	jne    4067a7 <___crt_xc_end__+0x17a7>
  406742:	3a 28                	cmp    (%eax),%ch
  406744:	35 2c 31 31 29       	xor    $0x2931312c,%eax
  406749:	3d 75 34 5f 5f       	cmp    $0x5f5f3475,%eax
  40674e:	77 63                	ja     4067b3 <___crt_xc_end__+0x17b3>
  406750:	68 3a 28 39 2c       	push   $0x2c39283a
  406755:	31 29                	xor    %ebp,(%ecx)
  406757:	2c 30                	sub    $0x30,%al
  406759:	2c 33                	sub    $0x33,%al
  40675b:	32 3b                	xor    (%ebx),%bh
  40675d:	5f                   	pop    %edi
  40675e:	5f                   	pop    %edi
  40675f:	77 63                	ja     4067c4 <___crt_xc_end__+0x17c4>
  406761:	68 62 3a 28 35       	push   $0x35283a62
  406766:	2c 31                	sub    $0x31,%al
  406768:	32 29                	xor    (%ecx),%ch
  40676a:	3d 61 72 28 35       	cmp    $0x35287261,%eax
  40676f:	2c 31                	sub    $0x31,%al
  406771:	33 29                	xor    (%ecx),%ebp
  406773:	3d 72 28 35 2c       	cmp    $0x2c352872,%eax
  406778:	31 33                	xor    %esi,(%ebx)
  40677a:	29 3b                	sub    %edi,(%ebx)
  40677c:	30 30                	xor    %dh,(%eax)
  40677e:	30 30                	xor    %dh,(%eax)
  406780:	30 30                	xor    %dh,(%eax)
  406782:	30 30                	xor    %dh,(%eax)
  406784:	30 30                	xor    %dh,(%eax)
  406786:	30 30                	xor    %dh,(%eax)
  406788:	30 3b                	xor    %bh,(%ebx)
  40678a:	30 30                	xor    %dh,(%eax)
  40678c:	33 37                	xor    (%edi),%esi
  40678e:	37                   	aaa    
  40678f:	37                   	aaa    
  406790:	37                   	aaa    
  406791:	37                   	aaa    
  406792:	37                   	aaa    
  406793:	37                   	aaa    
  406794:	37                   	aaa    
  406795:	37                   	aaa    
  406796:	37                   	aaa    
  406797:	3b 3b                	cmp    (%ebx),%edi
  406799:	30 3b                	xor    %bh,(%ebx)
  40679b:	33 3b                	xor    (%ebx),%edi
  40679d:	28 30                	sub    %dh,(%eax)
  40679f:	2c 31                	sub    $0x31,%al
  4067a1:	31 29                	xor    %ebp,(%ecx)
  4067a3:	2c 30                	sub    $0x30,%al
  4067a5:	2c 33                	sub    $0x33,%al
  4067a7:	32 3b                	xor    (%ebx),%bh
  4067a9:	3b 2c 33             	cmp    (%ebx,%esi,1),%ebp
  4067ac:	32 2c 33             	xor    (%ebx,%esi,1),%ch
  4067af:	32 3b                	xor    (%ebx),%bh
  4067b1:	3b 00                	cmp    (%eax),%eax
  4067b3:	5f                   	pop    %edi
  4067b4:	66                   	data16
  4067b5:	6c                   	insb   (%dx),%es:(%edi)
  4067b6:	6f                   	outsl  %ds:(%esi),(%dx)
  4067b7:	63 6b 5f             	arpl   %bp,0x5f(%ebx)
  4067ba:	74 3a                	je     4067f6 <___crt_xc_end__+0x17f6>
  4067bc:	74 28                	je     4067e6 <___crt_xc_end__+0x17e6>
  4067be:	35 2c 31 34 29       	xor    $0x2934312c,%eax
  4067c3:	3d 28 38 2c 31       	cmp    $0x312c3828,%eax
  4067c8:	29 00                	sub    %eax,(%eax)
  4067ca:	5f                   	pop    %edi
  4067cb:	69 63 6f 6e 76 5f 74 	imul   $0x745f766e,0x6f(%ebx),%esp
  4067d2:	3a 74 28 35          	cmp    0x35(%eax,%ebp,1),%dh
  4067d6:	2c 31                	sub    $0x31,%al
  4067d8:	35 29 3d 28 38       	xor    $0x38283d29,%eax
  4067dd:	2c 32                	sub    $0x32,%al
  4067df:	29 00                	sub    %eax,(%eax)
  4067e1:	5f                   	pop    %edi
  4067e2:	5f                   	pop    %edi
  4067e3:	55                   	push   %ebp
  4067e4:	4c                   	dec    %esp
  4067e5:	6f                   	outsl  %ds:(%esi),(%dx)
  4067e6:	6e                   	outsb  %ds:(%esi),(%dx)
  4067e7:	67 3a 74 28          	cmp    0x28(%si),%dh
  4067eb:	34 2c                	xor    $0x2c,%al
  4067ed:	31 29                	xor    %ebp,(%ecx)
  4067ef:	3d 28 30 2c 35       	cmp    $0x352c3028,%eax
  4067f4:	29 00                	sub    %eax,(%eax)
  4067f6:	5f                   	pop    %edi
  4067f7:	42                   	inc    %edx
  4067f8:	69 67 69 6e 74 3a 54 	imul   $0x543a746e,0x69(%edi),%esp
  4067ff:	28 34 2c             	sub    %dh,(%esp,%ebp,1)
  406802:	32 29                	xor    (%ecx),%ch
  406804:	3d 73 32 34 5f       	cmp    $0x5f343273,%eax
  406809:	6e                   	outsb  %ds:(%esi),(%dx)
  40680a:	65                   	gs
  40680b:	78 74                	js     406881 <___crt_xc_end__+0x1881>
  40680d:	3a 28                	cmp    (%eax),%ch
  40680f:	34 2c                	xor    $0x2c,%al
  406811:	33 29                	xor    (%ecx),%ebp
  406813:	3d 2a 28 34 2c       	cmp    $0x2c34282a,%eax
  406818:	32 29                	xor    (%ecx),%ch
  40681a:	2c 30                	sub    $0x30,%al
  40681c:	2c 33                	sub    $0x33,%al
  40681e:	32 3b                	xor    (%ebx),%bh
  406820:	5f                   	pop    %edi
  406821:	6b 3a 28             	imul   $0x28,(%edx),%edi
  406824:	30 2c 31             	xor    %ch,(%ecx,%esi,1)
  406827:	29 2c 33             	sub    %ebp,(%ebx,%esi,1)
  40682a:	32 2c 33             	xor    (%ebx,%esi,1),%ch
  40682d:	32 3b                	xor    (%ebx),%bh
  40682f:	5f                   	pop    %edi
  406830:	6d                   	insl   (%dx),%es:(%edi)
  406831:	61                   	popa   
  406832:	78 77                	js     4068ab <___crt_xc_end__+0x18ab>
  406834:	64                   	fs
  406835:	73 3a                	jae    406871 <___crt_xc_end__+0x1871>
  406837:	28 30                	sub    %dh,(%eax)
  406839:	2c 31                	sub    $0x31,%al
  40683b:	29 2c 36             	sub    %ebp,(%esi,%esi,1)
  40683e:	34 2c                	xor    $0x2c,%al
  406840:	33 32                	xor    (%edx),%esi
  406842:	3b 5f 73             	cmp    0x73(%edi),%ebx
  406845:	69 67 6e 3a 28 30 2c 	imul   $0x2c30283a,0x6e(%edi),%esp
  40684c:	31 29                	xor    %ebp,(%ecx)
  40684e:	2c 39                	sub    $0x39,%al
  406850:	36                   	ss
  406851:	2c 33                	sub    $0x33,%al
  406853:	32 3b                	xor    (%ebx),%bh
  406855:	5f                   	pop    %edi
  406856:	77 64                	ja     4068bc <___crt_xc_end__+0x18bc>
  406858:	73 3a                	jae    406894 <___crt_xc_end__+0x1894>
  40685a:	28 30                	sub    %dh,(%eax)
  40685c:	2c 31                	sub    $0x31,%al
  40685e:	29 2c 31             	sub    %ebp,(%ecx,%esi,1)
  406861:	32 38                	xor    (%eax),%bh
  406863:	2c 33                	sub    $0x33,%al
  406865:	32 3b                	xor    (%ebx),%bh
  406867:	5f                   	pop    %edi
  406868:	78 3a                	js     4068a4 <___crt_xc_end__+0x18a4>
  40686a:	28 34 2c             	sub    %dh,(%esp,%ebp,1)
  40686d:	34 29                	xor    $0x29,%al
  40686f:	3d 61 72 28 35       	cmp    $0x35287261,%eax
  406874:	2c 31                	sub    $0x31,%al
  406876:	33 29                	xor    (%ecx),%ebp
  406878:	3b 30                	cmp    (%eax),%esi
  40687a:	3b 30                	cmp    (%eax),%esi
  40687c:	3b 28                	cmp    (%eax),%ebp
  40687e:	34 2c                	xor    $0x2c,%al
  406880:	31 29                	xor    %ebp,(%ecx)
  406882:	2c 31                	sub    $0x31,%al
  406884:	36 30 2c 33          	xor    %ch,%ss:(%ebx,%esi,1)
  406888:	32 3b                	xor    (%ebx),%bh
  40688a:	3b 00                	cmp    (%eax),%eax
  40688c:	5f                   	pop    %edi
  40688d:	5f                   	pop    %edi
  40688e:	74 6d                	je     4068fd <___crt_xc_end__+0x18fd>
  406890:	3a 54 28 34          	cmp    0x34(%eax,%ebp,1),%dl
  406894:	2c 35                	sub    $0x35,%al
  406896:	29 3d 73 33 36 5f    	sub    %edi,0x5f363373
  40689c:	5f                   	pop    %edi
  40689d:	74 6d                	je     40690c <___crt_xc_end__+0x190c>
  40689f:	5f                   	pop    %edi
  4068a0:	73 65                	jae    406907 <___crt_xc_end__+0x1907>
  4068a2:	63 3a                	arpl   %di,(%edx)
  4068a4:	28 30                	sub    %dh,(%eax)
  4068a6:	2c 31                	sub    $0x31,%al
  4068a8:	29 2c 30             	sub    %ebp,(%eax,%esi,1)
  4068ab:	2c 33                	sub    $0x33,%al
  4068ad:	32 3b                	xor    (%ebx),%bh
  4068af:	5f                   	pop    %edi
  4068b0:	5f                   	pop    %edi
  4068b1:	74 6d                	je     406920 <___crt_xc_end__+0x1920>
  4068b3:	5f                   	pop    %edi
  4068b4:	6d                   	insl   (%dx),%es:(%edi)
  4068b5:	69 6e 3a 28 30 2c 31 	imul   $0x312c3028,0x3a(%esi),%ebp
  4068bc:	29 2c 33             	sub    %ebp,(%ebx,%esi,1)
  4068bf:	32 2c 33             	xor    (%ebx,%esi,1),%ch
  4068c2:	32 3b                	xor    (%ebx),%bh
  4068c4:	5f                   	pop    %edi
  4068c5:	5f                   	pop    %edi
  4068c6:	74 6d                	je     406935 <___crt_xc_end__+0x1935>
  4068c8:	5f                   	pop    %edi
  4068c9:	68 6f 75 72 3a       	push   $0x3a72756f
  4068ce:	28 30                	sub    %dh,(%eax)
  4068d0:	2c 31                	sub    $0x31,%al
  4068d2:	29 2c 36             	sub    %ebp,(%esi,%esi,1)
  4068d5:	34 2c                	xor    $0x2c,%al
  4068d7:	33 32                	xor    (%edx),%esi
  4068d9:	3b 5f 5f             	cmp    0x5f(%edi),%ebx
  4068dc:	74 6d                	je     40694b <___crt_xc_end__+0x194b>
  4068de:	5f                   	pop    %edi
  4068df:	6d                   	insl   (%dx),%es:(%edi)
  4068e0:	64                   	fs
  4068e1:	61                   	popa   
  4068e2:	79 3a                	jns    40691e <___crt_xc_end__+0x191e>
  4068e4:	28 30                	sub    %dh,(%eax)
  4068e6:	2c 31                	sub    $0x31,%al
  4068e8:	29 2c 39             	sub    %ebp,(%ecx,%edi,1)
  4068eb:	36                   	ss
  4068ec:	2c 33                	sub    $0x33,%al
  4068ee:	32 3b                	xor    (%ebx),%bh
  4068f0:	5f                   	pop    %edi
  4068f1:	5f                   	pop    %edi
  4068f2:	74 6d                	je     406961 <___crt_xc_end__+0x1961>
  4068f4:	5f                   	pop    %edi
  4068f5:	6d                   	insl   (%dx),%es:(%edi)
  4068f6:	6f                   	outsl  %ds:(%esi),(%dx)
  4068f7:	6e                   	outsb  %ds:(%esi),(%dx)
  4068f8:	3a 28                	cmp    (%eax),%ch
  4068fa:	30 2c 31             	xor    %ch,(%ecx,%esi,1)
  4068fd:	29 2c 31             	sub    %ebp,(%ecx,%esi,1)
  406900:	32 38                	xor    (%eax),%bh
  406902:	2c 33                	sub    $0x33,%al
  406904:	32 3b                	xor    (%ebx),%bh
  406906:	5f                   	pop    %edi
  406907:	5f                   	pop    %edi
  406908:	74 6d                	je     406977 <___crt_xc_end__+0x1977>
  40690a:	5f                   	pop    %edi
  40690b:	79 65                	jns    406972 <___crt_xc_end__+0x1972>
  40690d:	61                   	popa   
  40690e:	72 3a                	jb     40694a <___crt_xc_end__+0x194a>
  406910:	28 30                	sub    %dh,(%eax)
  406912:	2c 31                	sub    $0x31,%al
  406914:	29 2c 31             	sub    %ebp,(%ecx,%esi,1)
  406917:	36 30 2c 33          	xor    %ch,%ss:(%ebx,%esi,1)
  40691b:	32 3b                	xor    (%ebx),%bh
  40691d:	5f                   	pop    %edi
  40691e:	5f                   	pop    %edi
  40691f:	74 6d                	je     40698e <___crt_xc_end__+0x198e>
  406921:	5f                   	pop    %edi
  406922:	77 64                	ja     406988 <___crt_xc_end__+0x1988>
  406924:	61                   	popa   
  406925:	79 3a                	jns    406961 <___crt_xc_end__+0x1961>
  406927:	28 30                	sub    %dh,(%eax)
  406929:	2c 31                	sub    $0x31,%al
  40692b:	29 2c 31             	sub    %ebp,(%ecx,%esi,1)
  40692e:	39 32                	cmp    %esi,(%edx)
  406930:	2c 33                	sub    $0x33,%al
  406932:	32 3b                	xor    (%ebx),%bh
  406934:	5f                   	pop    %edi
  406935:	5f                   	pop    %edi
  406936:	74 6d                	je     4069a5 <___crt_xc_end__+0x19a5>
  406938:	5f                   	pop    %edi
  406939:	79 64                	jns    40699f <___crt_xc_end__+0x199f>
  40693b:	61                   	popa   
  40693c:	79 3a                	jns    406978 <___crt_xc_end__+0x1978>
  40693e:	28 30                	sub    %dh,(%eax)
  406940:	2c 31                	sub    $0x31,%al
  406942:	29 2c 32             	sub    %ebp,(%edx,%esi,1)
  406945:	32 34 2c             	xor    (%esp,%ebp,1),%dh
  406948:	33 32                	xor    (%edx),%esi
  40694a:	3b 5f 5f             	cmp    0x5f(%edi),%ebx
  40694d:	74 6d                	je     4069bc <___crt_xc_end__+0x19bc>
  40694f:	5f                   	pop    %edi
  406950:	69 73 64 73 74 3a 28 	imul   $0x283a7473,0x64(%ebx),%esi
  406957:	30 2c 31             	xor    %ch,(%ecx,%esi,1)
  40695a:	29 2c 32             	sub    %ebp,(%edx,%esi,1)
  40695d:	35 36 2c 33 32       	xor    $0x32332c36,%eax
  406962:	3b 3b                	cmp    (%ebx),%edi
  406964:	00 5f 6f             	add    %bl,0x6f(%edi)
  406967:	6e                   	outsb  %ds:(%esi),(%dx)
  406968:	5f                   	pop    %edi
  406969:	65                   	gs
  40696a:	78 69                	js     4069d5 <___crt_xc_end__+0x19d5>
  40696c:	74 5f                	je     4069cd <___crt_xc_end__+0x19cd>
  40696e:	61                   	popa   
  40696f:	72 67                	jb     4069d8 <___crt_xc_end__+0x19d8>
  406971:	73 3a                	jae    4069ad <___crt_xc_end__+0x19ad>
  406973:	54                   	push   %esp
  406974:	28 34 2c             	sub    %dh,(%esp,%ebp,1)
  406977:	36 29 3d 73 32 36 34 	sub    %edi,%ss:0x34363273
  40697e:	5f                   	pop    %edi
  40697f:	66                   	data16
  406980:	6e                   	outsb  %ds:(%esi),(%dx)
  406981:	61                   	popa   
  406982:	72 67                	jb     4069eb <___crt_xc_end__+0x19eb>
  406984:	73 3a                	jae    4069c0 <___crt_xc_end__+0x19c0>
  406986:	28 34 2c             	sub    %dh,(%esp,%ebp,1)
  406989:	37                   	aaa    
  40698a:	29 3d 61 72 28 35    	sub    %edi,0x35287261
  406990:	2c 31                	sub    $0x31,%al
  406992:	33 29                	xor    (%ecx),%ebp
  406994:	3b 30                	cmp    (%eax),%esi
  406996:	3b 33                	cmp    (%ebx),%esi
  406998:	31 3b                	xor    %edi,(%ebx)
  40699a:	28 38                	sub    %bh,(%eax)
  40699c:	2c 32                	sub    $0x32,%al
  40699e:	29 2c 30             	sub    %ebp,(%eax,%esi,1)
  4069a1:	2c 31                	sub    $0x31,%al
  4069a3:	30 32                	xor    %dh,(%edx)
  4069a5:	34 3b                	xor    $0x3b,%al
  4069a7:	5f                   	pop    %edi
  4069a8:	64                   	fs
  4069a9:	73 6f                	jae    406a1a <___crt_xc_end__+0x1a1a>
  4069ab:	5f                   	pop    %edi
  4069ac:	68 61 6e 64 6c       	push   $0x6c646e61
  4069b1:	65 3a 28             	cmp    %gs:(%eax),%ch
  4069b4:	34 2c                	xor    $0x2c,%al
  4069b6:	37                   	aaa    
  4069b7:	29 2c 31             	sub    %ebp,(%ecx,%esi,1)
  4069ba:	30 32                	xor    %dh,(%edx)
  4069bc:	34 2c                	xor    $0x2c,%al
  4069be:	31 30                	xor    %esi,(%eax)
  4069c0:	32 34 3b             	xor    (%ebx,%edi,1),%dh
  4069c3:	5f                   	pop    %edi
  4069c4:	66                   	data16
  4069c5:	6e                   	outsb  %ds:(%esi),(%dx)
  4069c6:	74 79                	je     406a41 <___crt_xc_end__+0x1a41>
  4069c8:	70 65                	jo     406a2f <___crt_xc_end__+0x1a2f>
  4069ca:	73 3a                	jae    406a06 <___crt_xc_end__+0x1a06>
  4069cc:	28 34 2c             	sub    %dh,(%esp,%ebp,1)
  4069cf:	31 29                	xor    %ebp,(%ecx)
  4069d1:	2c 32                	sub    $0x32,%al
  4069d3:	30 34 38             	xor    %dh,(%eax,%edi,1)
  4069d6:	2c 33                	sub    $0x33,%al
  4069d8:	32 3b                	xor    (%ebx),%bh
  4069da:	5f                   	pop    %edi
  4069db:	69 73 5f 63 78 61 3a 	imul   $0x3a617863,0x5f(%ebx),%esi
  4069e2:	28 34 2c             	sub    %dh,(%esp,%ebp,1)
  4069e5:	31 29                	xor    %ebp,(%ecx)
  4069e7:	2c 32                	sub    $0x32,%al
  4069e9:	30 38                	xor    %bh,(%eax)
  4069eb:	30 2c 33             	xor    %ch,(%ebx,%esi,1)
  4069ee:	32 3b                	xor    (%ebx),%bh
  4069f0:	3b 00                	cmp    (%eax),%eax
  4069f2:	5f                   	pop    %edi
  4069f3:	61                   	popa   
  4069f4:	74 65                	je     406a5b <___crt_xc_end__+0x1a5b>
  4069f6:	78 69                	js     406a61 <___crt_xc_end__+0x1a61>
  4069f8:	74 3a                	je     406a34 <___crt_xc_end__+0x1a34>
  4069fa:	54                   	push   %esp
  4069fb:	28 34 2c             	sub    %dh,(%esp,%ebp,1)
  4069fe:	38 29                	cmp    %ch,(%ecx)
  406a00:	3d 73 34 30 30       	cmp    $0x30303473,%eax
  406a05:	5f                   	pop    %edi
  406a06:	6e                   	outsb  %ds:(%esi),(%dx)
  406a07:	65                   	gs
  406a08:	78 74                	js     406a7e <___crt_xc_end__+0x1a7e>
  406a0a:	3a 28                	cmp    (%eax),%ch
  406a0c:	34 2c                	xor    $0x2c,%al
  406a0e:	39 29                	cmp    %ebp,(%ecx)
  406a10:	3d 2a 28 34 2c       	cmp    $0x2c34282a,%eax
  406a15:	38 29                	cmp    %ch,(%ecx)
  406a17:	2c 30                	sub    $0x30,%al
  406a19:	2c 33                	sub    $0x33,%al
  406a1b:	32 3b                	xor    (%ebx),%bh
  406a1d:	5f                   	pop    %edi
  406a1e:	69 6e 64 3a 28 30 2c 	imul   $0x2c30283a,0x64(%esi),%ebp
  406a25:	31 29                	xor    %ebp,(%ecx)
  406a27:	2c 33                	sub    $0x33,%al
  406a29:	32 2c 33             	xor    (%ebx,%esi,1),%ch
  406a2c:	32 3b                	xor    (%ebx),%bh
  406a2e:	5f                   	pop    %edi
  406a2f:	66                   	data16
  406a30:	6e                   	outsb  %ds:(%esi),(%dx)
  406a31:	73 3a                	jae    406a6d <___crt_xc_end__+0x1a6d>
  406a33:	28 34 2c             	sub    %dh,(%esp,%ebp,1)
  406a36:	31 30                	xor    %esi,(%eax)
  406a38:	29 3d 61 72 28 35    	sub    %edi,0x35287261
  406a3e:	2c 31                	sub    $0x31,%al
  406a40:	33 29                	xor    (%ecx),%ebp
  406a42:	3b 30                	cmp    (%eax),%esi
  406a44:	3b 33                	cmp    (%ebx),%esi
  406a46:	31 3b                	xor    %edi,(%ebx)
  406a48:	28 34 2c             	sub    %dh,(%esp,%ebp,1)
  406a4b:	31 31                	xor    %esi,(%ecx)
  406a4d:	29 3d 2a 28 34 2c    	sub    %edi,0x2c34282a
  406a53:	31 32                	xor    %esi,(%edx)
  406a55:	29 3d 66 28 30 2c    	sub    %edi,0x2c302866
  406a5b:	31 39                	xor    %edi,(%ecx)
  406a5d:	29 2c 36             	sub    %ebp,(%esi,%esi,1)
  406a60:	34 2c                	xor    $0x2c,%al
  406a62:	31 30                	xor    %esi,(%eax)
  406a64:	32 34 3b             	xor    (%ebx,%edi,1),%dh
  406a67:	5f                   	pop    %edi
  406a68:	6f                   	outsl  %ds:(%esi),(%dx)
  406a69:	6e                   	outsb  %ds:(%esi),(%dx)
  406a6a:	5f                   	pop    %edi
  406a6b:	65                   	gs
  406a6c:	78 69                	js     406ad7 <___crt_xc_end__+0x1ad7>
  406a6e:	74 5f                	je     406acf <___crt_xc_end__+0x1acf>
  406a70:	61                   	popa   
  406a71:	72 67                	jb     406ada <___crt_xc_end__+0x1ada>
  406a73:	73 3a                	jae    406aaf <___crt_xc_end__+0x1aaf>
  406a75:	28 34 2c             	sub    %dh,(%esp,%ebp,1)
  406a78:	36 29 2c 31          	sub    %ebp,%ss:(%ecx,%esi,1)
  406a7c:	30 38                	xor    %bh,(%eax)
  406a7e:	38 2c 32             	cmp    %ch,(%edx,%esi,1)
  406a81:	31 31                	xor    %esi,(%ecx)
  406a83:	32 3b                	xor    (%ebx),%bh
  406a85:	3b 00                	cmp    (%eax),%eax
  406a87:	5f                   	pop    %edi
  406a88:	5f                   	pop    %edi
  406a89:	73 62                	jae    406aed <___crt_xc_end__+0x1aed>
  406a8b:	75 66                	jne    406af3 <___crt_xc_end__+0x1af3>
  406a8d:	3a 54 28 34          	cmp    0x34(%eax,%ebp,1),%dl
  406a91:	2c 31                	sub    $0x31,%al
  406a93:	33 29                	xor    (%ecx),%ebp
  406a95:	3d 73 38 5f 62       	cmp    $0x625f3873,%eax
  406a9a:	61                   	popa   
  406a9b:	73 65                	jae    406b02 <___crt_xc_end__+0x1b02>
  406a9d:	3a 28                	cmp    (%eax),%ch
  406a9f:	34 2c                	xor    $0x2c,%al
  406aa1:	31 34 29             	xor    %esi,(%ecx,%ebp,1)
  406aa4:	3d 2a 28 30 2c       	cmp    $0x2c30282a,%eax
  406aa9:	31 31                	xor    %esi,(%ecx)
  406aab:	29 2c 30             	sub    %ebp,(%eax,%esi,1)
  406aae:	2c 33                	sub    $0x33,%al
  406ab0:	32 3b                	xor    (%ebx),%bh
  406ab2:	5f                   	pop    %edi
  406ab3:	73 69                	jae    406b1e <___crt_xc_end__+0x1b1e>
  406ab5:	7a 65                	jp     406b1c <___crt_xc_end__+0x1b1c>
  406ab7:	3a 28                	cmp    (%eax),%ch
  406ab9:	30 2c 31             	xor    %ch,(%ecx,%esi,1)
  406abc:	29 2c 33             	sub    %ebp,(%ebx,%esi,1)
  406abf:	32 2c 33             	xor    (%ebx,%esi,1),%ch
  406ac2:	32 3b                	xor    (%ebx),%bh
  406ac4:	3b 00                	cmp    (%eax),%eax
  406ac6:	5f                   	pop    %edi
  406ac7:	5f                   	pop    %edi
  406ac8:	73 46                	jae    406b10 <___crt_xc_end__+0x1b10>
  406aca:	49                   	dec    %ecx
  406acb:	4c                   	dec    %esp
  406acc:	45                   	inc    %ebp
  406acd:	3a 54 28 34          	cmp    0x34(%eax,%ebp,1),%dl
  406ad1:	2c 31                	sub    $0x31,%al
  406ad3:	35 29 3d 73 31       	xor    $0x31733d29,%eax
  406ad8:	30 34 5f             	xor    %dh,(%edi,%ebx,2)
  406adb:	70 3a                	jo     406b17 <___crt_xc_end__+0x1b17>
  406add:	28 34 2c             	sub    %dh,(%esp,%ebp,1)
  406ae0:	31 34 29             	xor    %esi,(%ecx,%ebp,1)
  406ae3:	2c 30                	sub    $0x30,%al
  406ae5:	2c 33                	sub    $0x33,%al
  406ae7:	32 3b                	xor    (%ebx),%bh
  406ae9:	5f                   	pop    %edi
  406aea:	72 3a                	jb     406b26 <___crt_xc_end__+0x1b26>
  406aec:	28 30                	sub    %dh,(%eax)
  406aee:	2c 31                	sub    $0x31,%al
  406af0:	29 2c 33             	sub    %ebp,(%ebx,%esi,1)
  406af3:	32 2c 33             	xor    (%ebx,%esi,1),%ch
  406af6:	32 3b                	xor    (%ebx),%bh
  406af8:	5f                   	pop    %edi
  406af9:	77 3a                	ja     406b35 <___crt_xc_end__+0x1b35>
  406afb:	28 30                	sub    %dh,(%eax)
  406afd:	2c 31                	sub    $0x31,%al
  406aff:	29 2c 36             	sub    %ebp,(%esi,%esi,1)
  406b02:	34 2c                	xor    $0x2c,%al
  406b04:	33 32                	xor    (%edx),%esi
  406b06:	3b 5f 66             	cmp    0x66(%edi),%ebx
  406b09:	6c                   	insb   (%dx),%es:(%edi)
  406b0a:	61                   	popa   
  406b0b:	67 73 3a             	addr16 jae 406b48 <___crt_xc_end__+0x1b48>
  406b0e:	28 30                	sub    %dh,(%eax)
  406b10:	2c 38                	sub    $0x38,%al
  406b12:	29 2c 39             	sub    %ebp,(%ecx,%edi,1)
  406b15:	36                   	ss
  406b16:	2c 31                	sub    $0x31,%al
  406b18:	36 3b 5f 66          	cmp    %ss:0x66(%edi),%ebx
  406b1c:	69 6c 65 3a 28 30 2c 	imul   $0x382c3028,0x3a(%ebp,%eiz,2),%ebp
  406b23:	38 
  406b24:	29 2c 31             	sub    %ebp,(%ecx,%esi,1)
  406b27:	31 32                	xor    %esi,(%edx)
  406b29:	2c 31                	sub    $0x31,%al
  406b2b:	36 3b 5f 62          	cmp    %ss:0x62(%edi),%ebx
  406b2f:	66                   	data16
  406b30:	3a 28                	cmp    (%eax),%ch
  406b32:	34 2c                	xor    $0x2c,%al
  406b34:	31 33                	xor    %esi,(%ebx)
  406b36:	29 2c 31             	sub    %ebp,(%ecx,%esi,1)
  406b39:	32 38                	xor    (%eax),%bh
  406b3b:	2c 36                	sub    $0x36,%al
  406b3d:	34 3b                	xor    $0x3b,%al
  406b3f:	5f                   	pop    %edi
  406b40:	6c                   	insb   (%dx),%es:(%edi)
  406b41:	62 66 73             	bound  %esp,0x73(%esi)
  406b44:	69 7a 65 3a 28 30 2c 	imul   $0x2c30283a,0x65(%edx),%edi
  406b4b:	31 29                	xor    %ebp,(%ecx)
  406b4d:	2c 31                	sub    $0x31,%al
  406b4f:	39 32                	cmp    %esi,(%edx)
  406b51:	2c 33                	sub    $0x33,%al
  406b53:	32 3b                	xor    (%ebx),%bh
  406b55:	5f                   	pop    %edi
  406b56:	63 6f 6f             	arpl   %bp,0x6f(%edi)
  406b59:	6b 69 65 3a          	imul   $0x3a,0x65(%ecx),%ebp
  406b5d:	28 38                	sub    %bh,(%eax)
  406b5f:	2c 32                	sub    $0x32,%al
  406b61:	29 2c 32             	sub    %ebp,(%edx,%esi,1)
  406b64:	32 34 2c             	xor    (%esp,%ebp,1),%dh
  406b67:	33 32                	xor    (%edx),%esi
  406b69:	3b 5f 72             	cmp    0x72(%edi),%ebx
  406b6c:	65                   	gs
  406b6d:	61                   	popa   
  406b6e:	64 3a 28             	cmp    %fs:(%eax),%ch
  406b71:	34 2c                	xor    $0x2c,%al
  406b73:	31 36                	xor    %esi,(%esi)
  406b75:	29 3d 2a 28 34 2c    	sub    %edi,0x2c34282a
  406b7b:	31 37                	xor    %esi,(%edi)
  406b7d:	29 3d 66 28 35 2c    	sub    %edi,0x2c352866
  406b83:	38 29                	cmp    %ch,(%ecx)
  406b85:	2c 32                	sub    $0x32,%al
  406b87:	35 36 2c 33 32       	xor    $0x32332c36,%eax
  406b8c:	3b 5f 77             	cmp    0x77(%edi),%ebx
  406b8f:	72 69                	jb     406bfa <___crt_xc_end__+0x1bfa>
  406b91:	74 65                	je     406bf8 <___crt_xc_end__+0x1bf8>
  406b93:	3a 28                	cmp    (%eax),%ch
  406b95:	34 2c                	xor    $0x2c,%al
  406b97:	31 38                	xor    %edi,(%eax)
  406b99:	29 3d 2a 28 34 2c    	sub    %edi,0x2c34282a
  406b9f:	31 39                	xor    %edi,(%ecx)
  406ba1:	29 3d 66 28 35 2c    	sub    %edi,0x2c352866
  406ba7:	38 29                	cmp    %ch,(%ecx)
  406ba9:	2c 32                	sub    $0x32,%al
  406bab:	38 38                	cmp    %bh,(%eax)
  406bad:	2c 33                	sub    $0x33,%al
  406baf:	32 3b                	xor    (%ebx),%bh
  406bb1:	5f                   	pop    %edi
  406bb2:	73 65                	jae    406c19 <___crt_xc_end__+0x1c19>
  406bb4:	65 6b 3a 28          	imul   $0x28,%gs:(%edx),%edi
  406bb8:	34 2c                	xor    $0x2c,%al
  406bba:	32 30                	xor    (%eax),%dh
  406bbc:	29 3d 2a 28 34 2c    	sub    %edi,0x2c34282a
  406bc2:	32 31                	xor    (%ecx),%dh
  406bc4:	29 3d 66 28 35 2c    	sub    %edi,0x2c352866
  406bca:	36 29 2c 33          	sub    %ebp,%ss:(%ebx,%esi,1)
  406bce:	32 30                	xor    (%eax),%dh
  406bd0:	2c 33                	sub    $0x33,%al
  406bd2:	32 3b                	xor    (%ebx),%bh
  406bd4:	5f                   	pop    %edi
  406bd5:	63 6c 6f 73          	arpl   %bp,0x73(%edi,%ebp,2)
  406bd9:	65 3a 28             	cmp    %gs:(%eax),%ch
  406bdc:	34 2c                	xor    $0x2c,%al
  406bde:	32 32                	xor    (%edx),%dh
  406be0:	29 3d 2a 28 34 2c    	sub    %edi,0x2c34282a
  406be6:	32 33                	xor    (%ebx),%dh
  406be8:	29 3d 66 28 30 2c    	sub    %edi,0x2c302866
  406bee:	31 29                	xor    %ebp,(%ecx)
  406bf0:	2c 33                	sub    $0x33,%al
  406bf2:	35 32 2c 33 32       	xor    $0x32332c32,%eax
  406bf7:	3b 5f 75             	cmp    0x75(%edi),%ebx
  406bfa:	62 3a                	bound  %edi,(%edx)
  406bfc:	28 34 2c             	sub    %dh,(%esp,%ebp,1)
  406bff:	31 33                	xor    %esi,(%ebx)
  406c01:	29 2c 33             	sub    %ebp,(%ebx,%esi,1)
  406c04:	38 34 2c             	cmp    %dh,(%esp,%ebp,1)
  406c07:	36                   	ss
  406c08:	34 3b                	xor    $0x3b,%al
  406c0a:	5f                   	pop    %edi
  406c0b:	75 70                	jne    406c7d <___crt_xc_end__+0x1c7d>
  406c0d:	3a 28                	cmp    (%eax),%ch
  406c0f:	34 2c                	xor    $0x2c,%al
  406c11:	31 34 29             	xor    %esi,(%ecx,%ebp,1)
  406c14:	2c 34                	sub    $0x34,%al
  406c16:	34 38                	xor    $0x38,%al
  406c18:	2c 33                	sub    $0x33,%al
  406c1a:	32 3b                	xor    (%ebx),%bh
  406c1c:	5f                   	pop    %edi
  406c1d:	75 72                	jne    406c91 <___crt_xc_end__+0x1c91>
  406c1f:	3a 28                	cmp    (%eax),%ch
  406c21:	30 2c 31             	xor    %ch,(%ecx,%esi,1)
  406c24:	29 2c 34             	sub    %ebp,(%esp,%esi,1)
  406c27:	38 30                	cmp    %dh,(%eax)
  406c29:	2c 33                	sub    $0x33,%al
  406c2b:	32 3b                	xor    (%ebx),%bh
  406c2d:	5f                   	pop    %edi
  406c2e:	75 62                	jne    406c92 <___crt_xc_end__+0x1c92>
  406c30:	75 66                	jne    406c98 <___crt_xc_end__+0x1c98>
  406c32:	3a 28                	cmp    (%eax),%ch
  406c34:	34 2c                	xor    $0x2c,%al
  406c36:	32 34 29             	xor    (%ecx,%ebp,1),%dh
  406c39:	3d 61 72 28 35       	cmp    $0x35287261,%eax
  406c3e:	2c 31                	sub    $0x31,%al
  406c40:	33 29                	xor    (%ecx),%ebp
  406c42:	3b 30                	cmp    (%eax),%esi
  406c44:	3b 32                	cmp    (%edx),%esi
  406c46:	3b 28                	cmp    (%eax),%ebp
  406c48:	30 2c 31             	xor    %ch,(%ecx,%esi,1)
  406c4b:	31 29                	xor    %ebp,(%ecx)
  406c4d:	2c 35                	sub    $0x35,%al
  406c4f:	31 32                	xor    %esi,(%edx)
  406c51:	2c 32                	sub    $0x32,%al
  406c53:	34 3b                	xor    $0x3b,%al
  406c55:	5f                   	pop    %edi
  406c56:	6e                   	outsb  %ds:(%esi),(%dx)
  406c57:	62 75 66             	bound  %esi,0x66(%ebp)
  406c5a:	3a 28                	cmp    (%eax),%ch
  406c5c:	34 2c                	xor    $0x2c,%al
  406c5e:	32 35 29 3d 61 72    	xor    0x72613d29,%dh
  406c64:	28 35 2c 31 33 29    	sub    %dh,0x2933312c
  406c6a:	3b 30                	cmp    (%eax),%esi
  406c6c:	3b 30                	cmp    (%eax),%esi
  406c6e:	3b 28                	cmp    (%eax),%ebp
  406c70:	30 2c 31             	xor    %ch,(%ecx,%esi,1)
  406c73:	31 29                	xor    %ebp,(%ecx)
  406c75:	2c 35                	sub    $0x35,%al
  406c77:	33 36                	xor    (%esi),%esi
  406c79:	2c 38                	sub    $0x38,%al
  406c7b:	3b 5f 6c             	cmp    0x6c(%edi),%ebx
  406c7e:	62 3a                	bound  %edi,(%edx)
  406c80:	28 34 2c             	sub    %dh,(%esp,%ebp,1)
  406c83:	31 33                	xor    %esi,(%ebx)
  406c85:	29 2c 35 34 34 2c 36 	sub    %ebp,0x362c3434(,%esi,1)
  406c8c:	34 3b                	xor    $0x3b,%al
  406c8e:	5f                   	pop    %edi
  406c8f:	62 6c 6b 73          	bound  %ebp,0x73(%ebx,%ebp,2)
  406c93:	69 7a 65 3a 28 30 2c 	imul   $0x2c30283a,0x65(%edx),%edi
  406c9a:	31 29                	xor    %ebp,(%ecx)
  406c9c:	2c 36                	sub    $0x36,%al
  406c9e:	30 38                	xor    %bh,(%eax)
  406ca0:	2c 33                	sub    $0x33,%al
  406ca2:	32 3b                	xor    (%ebx),%bh
  406ca4:	5f                   	pop    %edi
  406ca5:	6f                   	outsl  %ds:(%esi),(%dx)
  406ca6:	66                   	data16
  406ca7:	66                   	data16
  406ca8:	73 65                	jae    406d0f <___crt_xc_end__+0x1d0f>
  406caa:	74 3a                	je     406ce6 <___crt_xc_end__+0x1ce6>
  406cac:	28 30                	sub    %dh,(%eax)
  406cae:	2c 31                	sub    $0x31,%al
  406cb0:	29 2c 36             	sub    %ebp,(%esi,%esi,1)
  406cb3:	34 30                	xor    $0x30,%al
  406cb5:	2c 33                	sub    $0x33,%al
  406cb7:	32 3b                	xor    (%ebx),%bh
  406cb9:	5f                   	pop    %edi
  406cba:	64                   	fs
  406cbb:	61                   	popa   
  406cbc:	74 61                	je     406d1f <___crt_xc_end__+0x1d1f>
  406cbe:	3a 28                	cmp    (%eax),%ch
  406cc0:	34 2c                	xor    $0x2c,%al
  406cc2:	32 36                	xor    (%esi),%dh
  406cc4:	29 3d 2a 28 34 2c    	sub    %edi,0x2c34282a
  406cca:	32 37                	xor    (%edi),%dh
  406ccc:	29 3d 78 73 5f 72    	sub    %edi,0x725f7378
  406cd2:	65 65 6e             	gs outsb %gs:(%esi),(%dx)
  406cd5:	74 3a                	je     406d11 <___crt_xc_end__+0x1d11>
  406cd7:	2c 36                	sub    $0x36,%al
  406cd9:	37                   	aaa    
  406cda:	32 2c 33             	xor    (%ebx,%esi,1),%ch
  406cdd:	32 3b                	xor    (%ebx),%bh
  406cdf:	5f                   	pop    %edi
  406ce0:	6c                   	insb   (%dx),%es:(%edi)
  406ce1:	6f                   	outsl  %ds:(%esi),(%dx)
  406ce2:	63 6b 3a             	arpl   %bp,0x3a(%ebx)
  406ce5:	28 35 2c 31 34 29    	sub    %dh,0x2934312c
  406ceb:	2c 37                	sub    $0x37,%al
  406ced:	30 34 2c             	xor    %dh,(%esp,%ebp,1)
  406cf0:	33 32                	xor    (%edx),%esi
  406cf2:	3b 5f 6d             	cmp    0x6d(%edi),%ebx
  406cf5:	62 73 74             	bound  %esi,0x74(%ebx)
  406cf8:	61                   	popa   
  406cf9:	74 65                	je     406d60 <___crt_xc_end__+0x1d60>
  406cfb:	3a 28                	cmp    (%eax),%ch
  406cfd:	35 2c 39 29 2c       	xor    $0x2c29392c,%eax
  406d02:	37                   	aaa    
  406d03:	33 36                	xor    (%esi),%esi
  406d05:	2c 36                	sub    $0x36,%al
  406d07:	34 3b                	xor    $0x3b,%al
  406d09:	5f                   	pop    %edi
  406d0a:	66                   	data16
  406d0b:	6c                   	insb   (%dx),%es:(%edi)
  406d0c:	61                   	popa   
  406d0d:	67 73 32             	addr16 jae 406d42 <___crt_xc_end__+0x1d42>
  406d10:	3a 28                	cmp    (%eax),%ch
  406d12:	30 2c 31             	xor    %ch,(%ecx,%esi,1)
  406d15:	29 2c 38             	sub    %ebp,(%eax,%edi,1)
  406d18:	30 30                	xor    %dh,(%eax)
  406d1a:	2c 33                	sub    $0x33,%al
  406d1c:	32 3b                	xor    (%ebx),%bh
  406d1e:	3b 00                	cmp    (%eax),%eax
  406d20:	5f                   	pop    %edi
  406d21:	5f                   	pop    %edi
  406d22:	73 46                	jae    406d6a <___crt_xc_end__+0x1d6a>
  406d24:	49                   	dec    %ecx
  406d25:	4c                   	dec    %esp
  406d26:	45                   	inc    %ebp
  406d27:	36                   	ss
  406d28:	34 3a                	xor    $0x3a,%al
  406d2a:	54                   	push   %esp
  406d2b:	28 34 2c             	sub    %dh,(%esp,%ebp,1)
  406d2e:	32 38                	xor    (%eax),%bh
  406d30:	29 3d 73 31 31 32    	sub    %edi,0x32313173
  406d36:	5f                   	pop    %edi
  406d37:	70 3a                	jo     406d73 <___crt_xc_end__+0x1d73>
  406d39:	28 34 2c             	sub    %dh,(%esp,%ebp,1)
  406d3c:	31 34 29             	xor    %esi,(%ecx,%ebp,1)
  406d3f:	2c 30                	sub    $0x30,%al
  406d41:	2c 33                	sub    $0x33,%al
  406d43:	32 3b                	xor    (%ebx),%bh
  406d45:	5f                   	pop    %edi
  406d46:	72 3a                	jb     406d82 <___crt_xc_end__+0x1d82>
  406d48:	28 30                	sub    %dh,(%eax)
  406d4a:	2c 31                	sub    $0x31,%al
  406d4c:	29 2c 33             	sub    %ebp,(%ebx,%esi,1)
  406d4f:	32 2c 33             	xor    (%ebx,%esi,1),%ch
  406d52:	32 3b                	xor    (%ebx),%bh
  406d54:	5f                   	pop    %edi
  406d55:	77 3a                	ja     406d91 <___crt_xc_end__+0x1d91>
  406d57:	28 30                	sub    %dh,(%eax)
  406d59:	2c 31                	sub    $0x31,%al
  406d5b:	29 2c 36             	sub    %ebp,(%esi,%esi,1)
  406d5e:	34 2c                	xor    $0x2c,%al
  406d60:	33 32                	xor    (%edx),%esi
  406d62:	3b 5f 66             	cmp    0x66(%edi),%ebx
  406d65:	6c                   	insb   (%dx),%es:(%edi)
  406d66:	61                   	popa   
  406d67:	67 73 3a             	addr16 jae 406da4 <___crt_xc_end__+0x1da4>
  406d6a:	28 30                	sub    %dh,(%eax)
  406d6c:	2c 38                	sub    $0x38,%al
  406d6e:	29 2c 39             	sub    %ebp,(%ecx,%edi,1)
  406d71:	36                   	ss
  406d72:	2c 31                	sub    $0x31,%al
  406d74:	36 3b 5f 66          	cmp    %ss:0x66(%edi),%ebx
  406d78:	69 6c 65 3a 28 30 2c 	imul   $0x382c3028,0x3a(%ebp,%eiz,2),%ebp
  406d7f:	38 
  406d80:	29 2c 31             	sub    %ebp,(%ecx,%esi,1)
  406d83:	31 32                	xor    %esi,(%edx)
  406d85:	2c 31                	sub    $0x31,%al
  406d87:	36 3b 5f 62          	cmp    %ss:0x62(%edi),%ebx
  406d8b:	66                   	data16
  406d8c:	3a 28                	cmp    (%eax),%ch
  406d8e:	34 2c                	xor    $0x2c,%al
  406d90:	31 33                	xor    %esi,(%ebx)
  406d92:	29 2c 31             	sub    %ebp,(%ecx,%esi,1)
  406d95:	32 38                	xor    (%eax),%bh
  406d97:	2c 36                	sub    $0x36,%al
  406d99:	34 3b                	xor    $0x3b,%al
  406d9b:	5f                   	pop    %edi
  406d9c:	6c                   	insb   (%dx),%es:(%edi)
  406d9d:	62 66 73             	bound  %esp,0x73(%esi)
  406da0:	69 7a 65 3a 28 30 2c 	imul   $0x2c30283a,0x65(%edx),%edi
  406da7:	31 29                	xor    %ebp,(%ecx)
  406da9:	2c 31                	sub    $0x31,%al
  406dab:	39 32                	cmp    %esi,(%edx)
  406dad:	2c 33                	sub    $0x33,%al
  406daf:	32 3b                	xor    (%ebx),%bh
  406db1:	5f                   	pop    %edi
  406db2:	64                   	fs
  406db3:	61                   	popa   
  406db4:	74 61                	je     406e17 <___crt_xc_end__+0x1e17>
  406db6:	3a 28                	cmp    (%eax),%ch
  406db8:	34 2c                	xor    $0x2c,%al
  406dba:	32 36                	xor    (%esi),%dh
  406dbc:	29 2c 32             	sub    %ebp,(%edx,%esi,1)
  406dbf:	32 34 2c             	xor    (%esp,%ebp,1),%dh
  406dc2:	33 32                	xor    (%edx),%esi
  406dc4:	3b 5f 63             	cmp    0x63(%edi),%ebx
  406dc7:	6f                   	outsl  %ds:(%esi),(%dx)
  406dc8:	6f                   	outsl  %ds:(%esi),(%dx)
  406dc9:	6b 69 65 3a          	imul   $0x3a,0x65(%ecx),%ebp
  406dcd:	28 38                	sub    %bh,(%eax)
  406dcf:	2c 32                	sub    $0x32,%al
  406dd1:	29 2c 32             	sub    %ebp,(%edx,%esi,1)
  406dd4:	35 36 2c 33 32       	xor    $0x32332c36,%eax
  406dd9:	3b 5f 72             	cmp    0x72(%edi),%ebx
  406ddc:	65                   	gs
  406ddd:	61                   	popa   
  406dde:	64 3a 28             	cmp    %fs:(%eax),%ch
  406de1:	34 2c                	xor    $0x2c,%al
  406de3:	31 36                	xor    %esi,(%esi)
  406de5:	29 2c 32             	sub    %ebp,(%edx,%esi,1)
  406de8:	38 38                	cmp    %bh,(%eax)
  406dea:	2c 33                	sub    $0x33,%al
  406dec:	32 3b                	xor    (%ebx),%bh
  406dee:	5f                   	pop    %edi
  406def:	77 72                	ja     406e63 <___crt_xc_end__+0x1e63>
  406df1:	69 74 65 3a 28 34 2c 	imul   $0x312c3428,0x3a(%ebp,%eiz,2),%esi
  406df8:	31 
  406df9:	38 29                	cmp    %ch,(%ecx)
  406dfb:	2c 33                	sub    $0x33,%al
  406dfd:	32 30                	xor    (%eax),%dh
  406dff:	2c 33                	sub    $0x33,%al
  406e01:	32 3b                	xor    (%ebx),%bh
  406e03:	5f                   	pop    %edi
  406e04:	73 65                	jae    406e6b <___crt_xc_end__+0x1e6b>
  406e06:	65 6b 3a 28          	imul   $0x28,%gs:(%edx),%edi
  406e0a:	34 2c                	xor    $0x2c,%al
  406e0c:	32 30                	xor    (%eax),%dh
  406e0e:	29 2c 33             	sub    %ebp,(%ebx,%esi,1)
  406e11:	35 32 2c 33 32       	xor    $0x32332c32,%eax
  406e16:	3b 5f 63             	cmp    0x63(%edi),%ebx
  406e19:	6c                   	insb   (%dx),%es:(%edi)
  406e1a:	6f                   	outsl  %ds:(%esi),(%dx)
  406e1b:	73 65                	jae    406e82 <___crt_xc_end__+0x1e82>
  406e1d:	3a 28                	cmp    (%eax),%ch
  406e1f:	34 2c                	xor    $0x2c,%al
  406e21:	32 32                	xor    (%edx),%dh
  406e23:	29 2c 33             	sub    %ebp,(%ebx,%esi,1)
  406e26:	38 34 2c             	cmp    %dh,(%esp,%ebp,1)
  406e29:	33 32                	xor    (%edx),%esi
  406e2b:	3b 5f 75             	cmp    0x75(%edi),%ebx
  406e2e:	62 3a                	bound  %edi,(%edx)
  406e30:	28 34 2c             	sub    %dh,(%esp,%ebp,1)
  406e33:	31 33                	xor    %esi,(%ebx)
  406e35:	29 2c 34             	sub    %ebp,(%esp,%esi,1)
  406e38:	31 36                	xor    %esi,(%esi)
  406e3a:	2c 36                	sub    $0x36,%al
  406e3c:	34 3b                	xor    $0x3b,%al
  406e3e:	5f                   	pop    %edi
  406e3f:	75 70                	jne    406eb1 <___crt_xc_end__+0x1eb1>
  406e41:	3a 28                	cmp    (%eax),%ch
  406e43:	34 2c                	xor    $0x2c,%al
  406e45:	31 34 29             	xor    %esi,(%ecx,%ebp,1)
  406e48:	2c 34                	sub    $0x34,%al
  406e4a:	38 30                	cmp    %dh,(%eax)
  406e4c:	2c 33                	sub    $0x33,%al
  406e4e:	32 3b                	xor    (%ebx),%bh
  406e50:	5f                   	pop    %edi
  406e51:	75 72                	jne    406ec5 <___crt_xc_end__+0x1ec5>
  406e53:	3a 28                	cmp    (%eax),%ch
  406e55:	30 2c 31             	xor    %ch,(%ecx,%esi,1)
  406e58:	29 2c 35 31 32 2c 33 	sub    %ebp,0x332c3231(,%esi,1)
  406e5f:	32 3b                	xor    (%ebx),%bh
  406e61:	5f                   	pop    %edi
  406e62:	75 62                	jne    406ec6 <___crt_xc_end__+0x1ec6>
  406e64:	75 66                	jne    406ecc <___crt_xc_end__+0x1ecc>
  406e66:	3a 28                	cmp    (%eax),%ch
  406e68:	34 2c                	xor    $0x2c,%al
  406e6a:	32 34 29             	xor    (%ecx,%ebp,1),%dh
  406e6d:	2c 35                	sub    $0x35,%al
  406e6f:	34 34                	xor    $0x34,%al
  406e71:	2c 32                	sub    $0x32,%al
  406e73:	34 3b                	xor    $0x3b,%al
  406e75:	5f                   	pop    %edi
  406e76:	6e                   	outsb  %ds:(%esi),(%dx)
  406e77:	62 75 66             	bound  %esi,0x66(%ebp)
  406e7a:	3a 28                	cmp    (%eax),%ch
  406e7c:	34 2c                	xor    $0x2c,%al
  406e7e:	32 35 29 2c 35 36    	xor    0x36352c29,%dh
  406e84:	38 2c 38             	cmp    %ch,(%eax,%edi,1)
  406e87:	3b 5f 6c             	cmp    0x6c(%edi),%ebx
  406e8a:	62 3a                	bound  %edi,(%edx)
  406e8c:	28 34 2c             	sub    %dh,(%esp,%ebp,1)
  406e8f:	31 33                	xor    %esi,(%ebx)
  406e91:	29 2c 35 37 36 2c 36 	sub    %ebp,0x362c3637(,%esi,1)
  406e98:	34 3b                	xor    $0x3b,%al
  406e9a:	5f                   	pop    %edi
  406e9b:	62 6c 6b 73          	bound  %ebp,0x73(%ebx,%ebp,2)
  406e9f:	69 7a 65 3a 28 30 2c 	imul   $0x2c30283a,0x65(%edx),%edi
  406ea6:	31 29                	xor    %ebp,(%ecx)
  406ea8:	2c 36                	sub    $0x36,%al
  406eaa:	34 30                	xor    $0x30,%al
  406eac:	2c 33                	sub    $0x33,%al
  406eae:	32 3b                	xor    (%ebx),%bh
  406eb0:	5f                   	pop    %edi
  406eb1:	66                   	data16
  406eb2:	6c                   	insb   (%dx),%es:(%edi)
  406eb3:	61                   	popa   
  406eb4:	67 73 32             	addr16 jae 406ee9 <___crt_xc_end__+0x1ee9>
  406eb7:	3a 28                	cmp    (%eax),%ch
  406eb9:	30 2c 31             	xor    %ch,(%ecx,%esi,1)
  406ebc:	29 2c 36             	sub    %ebp,(%esi,%esi,1)
  406ebf:	37                   	aaa    
  406ec0:	32 2c 33             	xor    (%ebx,%esi,1),%ch
  406ec3:	32 3b                	xor    (%ebx),%bh
  406ec5:	5f                   	pop    %edi
  406ec6:	6f                   	outsl  %ds:(%esi),(%dx)
  406ec7:	66                   	data16
  406ec8:	66                   	data16
  406ec9:	73 65                	jae    406f30 <___crt_xc_end__+0x1f30>
  406ecb:	74 3a                	je     406f07 <___crt_xc_end__+0x1f07>
  406ecd:	28 35 2c 35 29 2c    	sub    %dh,0x2c29352c
  406ed3:	37                   	aaa    
  406ed4:	30 34 2c             	xor    %dh,(%esp,%ebp,1)
  406ed7:	36                   	ss
  406ed8:	34 3b                	xor    $0x3b,%al
  406eda:	5f                   	pop    %edi
  406edb:	73 65                	jae    406f42 <___crt_xc_end__+0x1f42>
  406edd:	65 6b 36 34          	imul   $0x34,%gs:(%esi),%esi
  406ee1:	3a 28                	cmp    (%eax),%ch
  406ee3:	34 2c                	xor    $0x2c,%al
  406ee5:	32 39                	xor    (%ecx),%bh
  406ee7:	29 3d 2a 28 34 2c    	sub    %edi,0x2c34282a
  406eed:	33 30                	xor    (%eax),%esi
  406eef:	29 3d 66 28 35 2c    	sub    %edi,0x2c352866
  406ef5:	37                   	aaa    
  406ef6:	29 2c 37             	sub    %ebp,(%edi,%esi,1)
  406ef9:	36 38 2c 33          	cmp    %ch,%ss:(%ebx,%esi,1)
  406efd:	32 3b                	xor    (%ebx),%bh
  406eff:	5f                   	pop    %edi
  406f00:	6c                   	insb   (%dx),%es:(%edi)
  406f01:	6f                   	outsl  %ds:(%esi),(%dx)
  406f02:	63 6b 3a             	arpl   %bp,0x3a(%ebx)
  406f05:	28 35 2c 31 34 29    	sub    %dh,0x2934312c
  406f0b:	2c 38                	sub    $0x38,%al
  406f0d:	30 30                	xor    %dh,(%eax)
  406f0f:	2c 33                	sub    $0x33,%al
  406f11:	32 3b                	xor    (%ebx),%bh
  406f13:	5f                   	pop    %edi
  406f14:	6d                   	insl   (%dx),%es:(%edi)
  406f15:	62 73 74             	bound  %esi,0x74(%ebx)
  406f18:	61                   	popa   
  406f19:	74 65                	je     406f80 <___crt_xc_end__+0x1f80>
  406f1b:	3a 28                	cmp    (%eax),%ch
  406f1d:	35 2c 39 29 2c       	xor    $0x2c29392c,%eax
  406f22:	38 33                	cmp    %dh,(%ebx)
  406f24:	32 2c 36             	xor    (%esi,%esi,1),%ch
  406f27:	34 3b                	xor    $0x3b,%al
  406f29:	3b 00                	cmp    (%eax),%eax
  406f2b:	5f                   	pop    %edi
  406f2c:	5f                   	pop    %edi
  406f2d:	46                   	inc    %esi
  406f2e:	49                   	dec    %ecx
  406f2f:	4c                   	dec    %esp
  406f30:	45                   	inc    %ebp
  406f31:	3a 74 28 34          	cmp    0x34(%eax,%ebp,1),%dh
  406f35:	2c 33                	sub    $0x33,%al
  406f37:	31 29                	xor    %ebp,(%ecx)
  406f39:	3d 28 34 2c 32       	cmp    $0x322c3428,%eax
  406f3e:	38 29                	cmp    %ch,(%ecx)
  406f40:	00 5f 67             	add    %bl,0x67(%edi)
  406f43:	6c                   	insb   (%dx),%es:(%edi)
  406f44:	75 65                	jne    406fab <___crt_xc_end__+0x1fab>
  406f46:	3a 54 28 34          	cmp    0x34(%eax,%ebp,1),%dl
  406f4a:	2c 33                	sub    $0x33,%al
  406f4c:	32 29                	xor    (%ecx),%ch
  406f4e:	3d 73 31 32 5f       	cmp    $0x5f323173,%eax
  406f53:	6e                   	outsb  %ds:(%esi),(%dx)
  406f54:	65                   	gs
  406f55:	78 74                	js     406fcb <___crt_xc_end__+0x1fcb>
  406f57:	3a 28                	cmp    (%eax),%ch
  406f59:	34 2c                	xor    $0x2c,%al
  406f5b:	33 33                	xor    (%ebx),%esi
  406f5d:	29 3d 2a 28 34 2c    	sub    %edi,0x2c34282a
  406f63:	33 32                	xor    (%edx),%esi
  406f65:	29 2c 30             	sub    %ebp,(%eax,%esi,1)
  406f68:	2c 33                	sub    $0x33,%al
  406f6a:	32 3b                	xor    (%ebx),%bh
  406f6c:	5f                   	pop    %edi
  406f6d:	6e                   	outsb  %ds:(%esi),(%dx)
  406f6e:	69 6f 62 73 3a 28 30 	imul   $0x30283a73,0x62(%edi),%ebp
  406f75:	2c 31                	sub    $0x31,%al
  406f77:	29 2c 33             	sub    %ebp,(%ebx,%esi,1)
  406f7a:	32 2c 33             	xor    (%ebx,%esi,1),%ch
  406f7d:	32 3b                	xor    (%ebx),%bh
  406f7f:	5f                   	pop    %edi
  406f80:	69 6f 62 73 3a 28 34 	imul   $0x34283a73,0x62(%edi),%ebp
  406f87:	2c 33                	sub    $0x33,%al
  406f89:	34 29                	xor    $0x29,%al
  406f8b:	3d 2a 28 34 2c       	cmp    $0x2c34282a,%eax
  406f90:	33 31                	xor    (%ecx),%esi
  406f92:	29 2c 36             	sub    %ebp,(%esi,%esi,1)
  406f95:	34 2c                	xor    $0x2c,%al
  406f97:	33 32                	xor    (%edx),%esi
  406f99:	3b 3b                	cmp    (%ebx),%edi
  406f9b:	00 5f 72             	add    %bl,0x72(%edi)
  406f9e:	61                   	popa   
  406f9f:	6e                   	outsb  %ds:(%esi),(%dx)
  406fa0:	64                   	fs
  406fa1:	34 38                	xor    $0x38,%al
  406fa3:	3a 54 28 34          	cmp    0x34(%eax,%ebp,1),%dl
  406fa7:	2c 33                	sub    $0x33,%al
  406fa9:	35 29 3d 73 31       	xor    $0x31733d29,%eax
  406fae:	34 5f                	xor    $0x5f,%al
  406fb0:	73 65                	jae    407017 <___crt_xc_end__+0x2017>
  406fb2:	65 64 3a 28          	gs cmp %fs:%gs:(%eax),%ch
  406fb6:	34 2c                	xor    $0x2c,%al
  406fb8:	33 36                	xor    (%esi),%esi
  406fba:	29 3d 61 72 28 35    	sub    %edi,0x35287261
  406fc0:	2c 31                	sub    $0x31,%al
  406fc2:	33 29                	xor    (%ecx),%ebp
  406fc4:	3b 30                	cmp    (%eax),%esi
  406fc6:	3b 32                	cmp    (%edx),%esi
  406fc8:	3b 28                	cmp    (%eax),%ebp
  406fca:	30 2c 39             	xor    %ch,(%ecx,%edi,1)
  406fcd:	29 2c 30             	sub    %ebp,(%eax,%esi,1)
  406fd0:	2c 34                	sub    $0x34,%al
  406fd2:	38 3b                	cmp    %bh,(%ebx)
  406fd4:	5f                   	pop    %edi
  406fd5:	6d                   	insl   (%dx),%es:(%edi)
  406fd6:	75 6c                	jne    407044 <___crt_xc_end__+0x2044>
  406fd8:	74 3a                	je     407014 <___crt_xc_end__+0x2014>
  406fda:	28 34 2c             	sub    %dh,(%esp,%ebp,1)
  406fdd:	33 36                	xor    (%esi),%esi
  406fdf:	29 2c 34             	sub    %ebp,(%esp,%esi,1)
  406fe2:	38 2c 34             	cmp    %ch,(%esp,%esi,1)
  406fe5:	38 3b                	cmp    %bh,(%ebx)
  406fe7:	5f                   	pop    %edi
  406fe8:	61                   	popa   
  406fe9:	64 64 3a 28          	fs cmp %fs:(%eax),%ch
  406fed:	30 2c 39             	xor    %ch,(%ecx,%edi,1)
  406ff0:	29 2c 39             	sub    %ebp,(%ecx,%edi,1)
  406ff3:	36                   	ss
  406ff4:	2c 31                	sub    $0x31,%al
  406ff6:	36 3b 3b             	cmp    %ss:(%ebx),%edi
  406ff9:	00 5f 72             	add    %bl,0x72(%edi)
  406ffc:	65 65 6e             	gs outsb %gs:(%esi),(%dx)
  406fff:	74 3a                	je     40703b <___crt_xc_end__+0x203b>
  407001:	54                   	push   %esp
  407002:	28 34 2c             	sub    %dh,(%esp,%ebp,1)
  407005:	32 37                	xor    (%edi),%dh
  407007:	29 3d 73 31 30 38    	sub    %edi,0x38303173
  40700d:	38 5f 65             	cmp    %bl,0x65(%edi)
  407010:	72 72                	jb     407084 <___crt_xc_end__+0x2084>
  407012:	6e                   	outsb  %ds:(%esi),(%dx)
  407013:	6f                   	outsl  %ds:(%esi),(%dx)
  407014:	3a 28                	cmp    (%eax),%ch
  407016:	30 2c 31             	xor    %ch,(%ecx,%esi,1)
  407019:	29 2c 30             	sub    %ebp,(%eax,%esi,1)
  40701c:	2c 33                	sub    $0x33,%al
  40701e:	32 3b                	xor    (%ebx),%bh
  407020:	5f                   	pop    %edi
  407021:	73 74                	jae    407097 <___crt_xc_end__+0x2097>
  407023:	64 69 6e 3a 28 34 2c 	imul   $0x332c3428,%fs:0x3a(%esi),%ebp
  40702a:	33 
  40702b:	34 29                	xor    $0x29,%al
  40702d:	2c 33                	sub    $0x33,%al
  40702f:	32 2c 33             	xor    (%ebx,%esi,1),%ch
  407032:	32 3b                	xor    (%ebx),%bh
  407034:	5f                   	pop    %edi
  407035:	73 74                	jae    4070ab <___crt_xc_end__+0x20ab>
  407037:	64 6f                	outsl  %fs:(%esi),(%dx)
  407039:	75 74                	jne    4070af <___crt_xc_end__+0x20af>
  40703b:	3a 28                	cmp    (%eax),%ch
  40703d:	34 2c                	xor    $0x2c,%al
  40703f:	33 34 29             	xor    (%ecx,%ebp,1),%esi
  407042:	2c 36                	sub    $0x36,%al
  407044:	34 2c                	xor    $0x2c,%al
  407046:	33 32                	xor    (%edx),%esi
  407048:	3b 5f 73             	cmp    0x73(%edi),%ebx
  40704b:	74 64                	je     4070b1 <___crt_xc_end__+0x20b1>
  40704d:	65                   	gs
  40704e:	72 72                	jb     4070c2 <___crt_xc_end__+0x20c2>
  407050:	3a 28                	cmp    (%eax),%ch
  407052:	34 2c                	xor    $0x2c,%al
  407054:	33 34 29             	xor    (%ecx,%ebp,1),%esi
  407057:	2c 39                	sub    $0x39,%al
  407059:	36                   	ss
  40705a:	2c 33                	sub    $0x33,%al
  40705c:	32 3b                	xor    (%ebx),%bh
  40705e:	5f                   	pop    %edi
  40705f:	69 6e 63 3a 28 30 2c 	imul   $0x2c30283a,0x63(%esi),%ebp
  407066:	31 29                	xor    %ebp,(%ecx)
  407068:	2c 31                	sub    $0x31,%al
  40706a:	32 38                	xor    (%eax),%bh
  40706c:	2c 33                	sub    $0x33,%al
  40706e:	32 3b                	xor    (%ebx),%bh
  407070:	5f                   	pop    %edi
  407071:	65                   	gs
  407072:	6d                   	insl   (%dx),%es:(%edi)
  407073:	65                   	gs
  407074:	72 67                	jb     4070dd <___crt_xc_end__+0x20dd>
  407076:	65 6e                	outsb  %gs:(%esi),(%dx)
  407078:	63 79 3a             	arpl   %di,0x3a(%ecx)
  40707b:	28 34 2c             	sub    %dh,(%esp,%ebp,1)
  40707e:	33 37                	xor    (%edi),%esi
  407080:	29 3d 61 72 28 35    	sub    %edi,0x35287261
  407086:	2c 31                	sub    $0x31,%al
  407088:	33 29                	xor    (%ecx),%ebp
  40708a:	3b 30                	cmp    (%eax),%esi
  40708c:	3b 32                	cmp    (%edx),%esi
  40708e:	34 3b                	xor    $0x3b,%al
  407090:	28 30                	sub    %dh,(%eax)
  407092:	2c 32                	sub    $0x32,%al
  407094:	29 2c 31             	sub    %ebp,(%ecx,%esi,1)
  407097:	36 30 2c 32          	xor    %ch,%ss:(%edx,%esi,1)
  40709b:	30 30                	xor    %dh,(%eax)
  40709d:	3b 5f 63             	cmp    0x63(%edi),%ebx
  4070a0:	75 72                	jne    407114 <___crt_xc_end__+0x2114>
  4070a2:	72 65                	jb     407109 <___crt_xc_end__+0x2109>
  4070a4:	6e                   	outsb  %ds:(%esi),(%dx)
  4070a5:	74 5f                	je     407106 <___crt_xc_end__+0x2106>
  4070a7:	63 61 74             	arpl   %sp,0x74(%ecx)
  4070aa:	65 67 6f             	outsl  %gs:(%si),(%dx)
  4070ad:	72 79                	jb     407128 <___crt_xc_end__+0x2128>
  4070af:	3a 28                	cmp    (%eax),%ch
  4070b1:	30 2c 31             	xor    %ch,(%ecx,%esi,1)
  4070b4:	29 2c 33             	sub    %ebp,(%ebx,%esi,1)
  4070b7:	38 34 2c             	cmp    %dh,(%esp,%ebp,1)
  4070ba:	33 32                	xor    (%edx),%esi
  4070bc:	3b 5f 63             	cmp    0x63(%edi),%ebx
  4070bf:	75 72                	jne    407133 <___crt_xc_end__+0x2133>
  4070c1:	72 65                	jb     407128 <___crt_xc_end__+0x2128>
  4070c3:	6e                   	outsb  %ds:(%esi),(%dx)
  4070c4:	74 5f                	je     407125 <___crt_xc_end__+0x2125>
  4070c6:	6c                   	insb   (%dx),%es:(%edi)
  4070c7:	6f                   	outsl  %ds:(%esi),(%dx)
  4070c8:	63 61 6c             	arpl   %sp,0x6c(%ecx)
  4070cb:	65 3a 28             	cmp    %gs:(%eax),%ch
  4070ce:	34 2c                	xor    $0x2c,%al
  4070d0:	33 38                	xor    (%eax),%edi
  4070d2:	29 3d 2a 28 34 2c    	sub    %edi,0x2c34282a
  4070d8:	33 39                	xor    (%ecx),%edi
  4070da:	29 3d 6b 28 30 2c    	sub    %edi,0x2c30286b
  4070e0:	32 29                	xor    (%ecx),%ch
  4070e2:	2c 34                	sub    $0x34,%al
  4070e4:	31 36                	xor    %esi,(%esi)
  4070e6:	2c 33                	sub    $0x33,%al
  4070e8:	32 3b                	xor    (%ebx),%bh
  4070ea:	5f                   	pop    %edi
  4070eb:	5f                   	pop    %edi
  4070ec:	73 64                	jae    407152 <___crt_xc_end__+0x2152>
  4070ee:	69 64 69 6e 69 74 3a 	imul   $0x283a7469,0x6e(%ecx,%ebp,2),%esp
  4070f5:	28 
  4070f6:	30 2c 31             	xor    %ch,(%ecx,%esi,1)
  4070f9:	29 2c 34             	sub    %ebp,(%esp,%esi,1)
  4070fc:	34 38                	xor    $0x38,%al
  4070fe:	2c 33                	sub    $0x33,%al
  407100:	32 3b                	xor    (%ebx),%bh
  407102:	5f                   	pop    %edi
  407103:	5f                   	pop    %edi
  407104:	63 6c 65 61          	arpl   %bp,0x61(%ebp,%eiz,2)
  407108:	6e                   	outsb  %ds:(%esi),(%dx)
  407109:	75 70                	jne    40717b <___crt_xc_end__+0x217b>
  40710b:	3a 28                	cmp    (%eax),%ch
  40710d:	34 2c                	xor    $0x2c,%al
  40710f:	34 30                	xor    $0x30,%al
  407111:	29 3d 2a 28 34 2c    	sub    %edi,0x2c34282a
  407117:	34 31                	xor    $0x31,%al
  407119:	29 3d 66 28 30 2c    	sub    %edi,0x2c302866
  40711f:	31 39                	xor    %edi,(%ecx)
  407121:	29 2c 34             	sub    %ebp,(%esp,%esi,1)
  407124:	38 30                	cmp    %dh,(%eax)
  407126:	2c 33                	sub    $0x33,%al
  407128:	32 3b                	xor    (%ebx),%bh
  40712a:	5f                   	pop    %edi
  40712b:	72 65                	jb     407192 <___crt_xc_end__+0x2192>
  40712d:	73 75                	jae    4071a4 <___crt_xc_end__+0x21a4>
  40712f:	6c                   	insb   (%dx),%es:(%edi)
  407130:	74 3a                	je     40716c <___crt_xc_end__+0x216c>
  407132:	28 34 2c             	sub    %dh,(%esp,%ebp,1)
  407135:	33 29                	xor    (%ecx),%ebp
  407137:	2c 35                	sub    $0x35,%al
  407139:	31 32                	xor    %esi,(%edx)
  40713b:	2c 33                	sub    $0x33,%al
  40713d:	32 3b                	xor    (%ebx),%bh
  40713f:	5f                   	pop    %edi
  407140:	72 65                	jb     4071a7 <___crt_xc_end__+0x21a7>
  407142:	73 75                	jae    4071b9 <___crt_xc_end__+0x21b9>
  407144:	6c                   	insb   (%dx),%es:(%edi)
  407145:	74 5f                	je     4071a6 <___crt_xc_end__+0x21a6>
  407147:	6b 3a 28             	imul   $0x28,(%edx),%edi
  40714a:	30 2c 31             	xor    %ch,(%ecx,%esi,1)
  40714d:	29 2c 35 34 34 2c 33 	sub    %ebp,0x332c3434(,%esi,1)
  407154:	32 3b                	xor    (%ebx),%bh
  407156:	5f                   	pop    %edi
  407157:	70 35                	jo     40718e <___crt_xc_end__+0x218e>
  407159:	73 3a                	jae    407195 <___crt_xc_end__+0x2195>
  40715b:	28 34 2c             	sub    %dh,(%esp,%ebp,1)
  40715e:	33 29                	xor    (%ecx),%ebp
  407160:	2c 35                	sub    $0x35,%al
  407162:	37                   	aaa    
  407163:	36                   	ss
  407164:	2c 33                	sub    $0x33,%al
  407166:	32 3b                	xor    (%ebx),%bh
  407168:	5f                   	pop    %edi
  407169:	66                   	data16
  40716a:	72 65                	jb     4071d1 <___crt_xc_end__+0x21d1>
  40716c:	65                   	gs
  40716d:	6c                   	insb   (%dx),%es:(%edi)
  40716e:	69 73 74 3a 28 34 2c 	imul   $0x2c34283a,0x74(%ebx),%esi
  407175:	34 32                	xor    $0x32,%al
  407177:	29 3d 2a 28 34 2c    	sub    %edi,0x2c34282a
  40717d:	33 29                	xor    (%ecx),%ebp
  40717f:	2c 36                	sub    $0x36,%al
  407181:	30 38                	xor    %bh,(%eax)
  407183:	2c 33                	sub    $0x33,%al
  407185:	32 3b                	xor    (%ebx),%bh
  407187:	5f                   	pop    %edi
  407188:	63 76 74             	arpl   %si,0x74(%esi)
  40718b:	6c                   	insb   (%dx),%es:(%edi)
  40718c:	65 6e                	outsb  %gs:(%esi),(%dx)
  40718e:	3a 28                	cmp    (%eax),%ch
  407190:	30 2c 31             	xor    %ch,(%ecx,%esi,1)
  407193:	29 2c 36             	sub    %ebp,(%esi,%esi,1)
  407196:	34 30                	xor    $0x30,%al
  407198:	2c 33                	sub    $0x33,%al
  40719a:	32 3b                	xor    (%ebx),%bh
  40719c:	5f                   	pop    %edi
  40719d:	63 76 74             	arpl   %si,0x74(%esi)
  4071a0:	62 75 66             	bound  %esi,0x66(%ebp)
  4071a3:	3a 28                	cmp    (%eax),%ch
  4071a5:	34 2c                	xor    $0x2c,%al
  4071a7:	34 33                	xor    $0x33,%al
  4071a9:	29 3d 2a 28 30 2c    	sub    %edi,0x2c30282a
  4071af:	32 29                	xor    (%ecx),%ch
  4071b1:	2c 36                	sub    $0x36,%al
  4071b3:	37                   	aaa    
  4071b4:	32 2c 33             	xor    (%ebx,%esi,1),%ch
  4071b7:	32 3b                	xor    (%ebx),%bh
  4071b9:	5f                   	pop    %edi
  4071ba:	6e                   	outsb  %ds:(%esi),(%dx)
  4071bb:	65                   	gs
  4071bc:	77 3a                	ja     4071f8 <___crt_xc_end__+0x21f8>
  4071be:	28 34 2c             	sub    %dh,(%esp,%ebp,1)
  4071c1:	34 34                	xor    $0x34,%al
  4071c3:	29 3d 75 32 34 30    	sub    %edi,0x30343275
  4071c9:	5f                   	pop    %edi
  4071ca:	72 65                	jb     407231 <___crt_xc_end__+0x2231>
  4071cc:	65 6e                	outsb  %gs:(%esi),(%dx)
  4071ce:	74 3a                	je     40720a <___crt_xc_end__+0x220a>
  4071d0:	28 34 2c             	sub    %dh,(%esp,%ebp,1)
  4071d3:	34 35                	xor    $0x35,%al
  4071d5:	29 3d 73 32 30 38    	sub    %edi,0x38303273
  4071db:	5f                   	pop    %edi
  4071dc:	75 6e                	jne    40724c <___crt_xc_end__+0x224c>
  4071de:	75 73                	jne    407253 <___crt_xc_end__+0x2253>
  4071e0:	65                   	gs
  4071e1:	64                   	fs
  4071e2:	5f                   	pop    %edi
  4071e3:	72 61                	jb     407246 <___crt_xc_end__+0x2246>
  4071e5:	6e                   	outsb  %ds:(%esi),(%dx)
  4071e6:	64 3a 28             	cmp    %fs:(%eax),%ch
  4071e9:	30 2c 34             	xor    %ch,(%esp,%esi,1)
  4071ec:	29 2c 30             	sub    %ebp,(%eax,%esi,1)
  4071ef:	2c 33                	sub    $0x33,%al
  4071f1:	32 3b                	xor    (%ebx),%bh
  4071f3:	5f                   	pop    %edi
  4071f4:	73 74                	jae    40726a <___crt_xc_end__+0x226a>
  4071f6:	72 74                	jb     40726c <___crt_xc_end__+0x226c>
  4071f8:	6f                   	outsl  %ds:(%esi),(%dx)
  4071f9:	6b 5f 6c 61          	imul   $0x61,0x6c(%edi),%ebx
  4071fd:	73 74                	jae    407273 <___crt_xc_end__+0x2273>
  4071ff:	3a 28                	cmp    (%eax),%ch
  407201:	34 2c                	xor    $0x2c,%al
  407203:	34 33                	xor    $0x33,%al
  407205:	29 2c 33             	sub    %ebp,(%ebx,%esi,1)
  407208:	32 2c 33             	xor    (%ebx,%esi,1),%ch
  40720b:	32 3b                	xor    (%ebx),%bh
  40720d:	5f                   	pop    %edi
  40720e:	61                   	popa   
  40720f:	73 63                	jae    407274 <___crt_xc_end__+0x2274>
  407211:	74 69                	je     40727c <___crt_xc_end__+0x227c>
  407213:	6d                   	insl   (%dx),%es:(%edi)
  407214:	65                   	gs
  407215:	5f                   	pop    %edi
  407216:	62 75 66             	bound  %esi,0x66(%ebp)
  407219:	3a 28                	cmp    (%eax),%ch
  40721b:	34 2c                	xor    $0x2c,%al
  40721d:	34 36                	xor    $0x36,%al
  40721f:	29 3d 61 72 28 35    	sub    %edi,0x35287261
  407225:	2c 31                	sub    $0x31,%al
  407227:	33 29                	xor    (%ecx),%ebp
  407229:	3b 30                	cmp    (%eax),%esi
  40722b:	3b 32                	cmp    (%edx),%esi
  40722d:	35 3b 28 30 2c       	xor    $0x2c30283b,%eax
  407232:	32 29                	xor    (%ecx),%ch
  407234:	2c 36                	sub    $0x36,%al
  407236:	34 2c                	xor    $0x2c,%al
  407238:	32 30                	xor    (%eax),%dh
  40723a:	38 3b                	cmp    %bh,(%ebx)
  40723c:	5f                   	pop    %edi
  40723d:	6c                   	insb   (%dx),%es:(%edi)
  40723e:	6f                   	outsl  %ds:(%esi),(%dx)
  40723f:	63 61 6c             	arpl   %sp,0x6c(%ecx)
  407242:	74 69                	je     4072ad <___crt_xc_end__+0x22ad>
  407244:	6d                   	insl   (%dx),%es:(%edi)
  407245:	65                   	gs
  407246:	5f                   	pop    %edi
  407247:	62 75 66             	bound  %esi,0x66(%ebp)
  40724a:	3a 28                	cmp    (%eax),%ch
  40724c:	34 2c                	xor    $0x2c,%al
  40724e:	35 29 2c 32 38       	xor    $0x38322c29,%eax
  407253:	38 2c 32             	cmp    %ch,(%edx,%esi,1)
  407256:	38 38                	cmp    %bh,(%eax)
  407258:	3b 5f 67             	cmp    0x67(%edi),%ebx
  40725b:	61                   	popa   
  40725c:	6d                   	insl   (%dx),%es:(%edi)
  40725d:	6d                   	insl   (%dx),%es:(%edi)
  40725e:	61                   	popa   
  40725f:	5f                   	pop    %edi
  407260:	73 69                	jae    4072cb <___crt_xc_end__+0x22cb>
  407262:	67 6e                	outsb  %ds:(%si),(%dx)
  407264:	67 61                	addr16 popa 
  407266:	6d                   	insl   (%dx),%es:(%edi)
  407267:	3a 28                	cmp    (%eax),%ch
  407269:	30 2c 31             	xor    %ch,(%ecx,%esi,1)
  40726c:	29 2c 35 37 36 2c 33 	sub    %ebp,0x332c3637(,%esi,1)
  407273:	32 3b                	xor    (%ebx),%bh
  407275:	5f                   	pop    %edi
  407276:	72 61                	jb     4072d9 <___crt_xc_end__+0x22d9>
  407278:	6e                   	outsb  %ds:(%esi),(%dx)
  407279:	64                   	fs
  40727a:	5f                   	pop    %edi
  40727b:	6e                   	outsb  %ds:(%esi),(%dx)
  40727c:	65                   	gs
  40727d:	78 74                	js     4072f3 <___crt_xc_end__+0x22f3>
  40727f:	3a 28                	cmp    (%eax),%ch
  407281:	30 2c 37             	xor    %ch,(%edi,%esi,1)
  407284:	29 2c 36             	sub    %ebp,(%esi,%esi,1)
  407287:	34 30                	xor    $0x30,%al
  407289:	2c 36                	sub    $0x36,%al
  40728b:	34 3b                	xor    $0x3b,%al
  40728d:	5f                   	pop    %edi
  40728e:	72 34                	jb     4072c4 <___crt_xc_end__+0x22c4>
  407290:	38 3a                	cmp    %bh,(%edx)
  407292:	28 34 2c             	sub    %dh,(%esp,%ebp,1)
  407295:	33 35 29 2c 37 30    	xor    0x30372c29,%esi
  40729b:	34 2c                	xor    $0x2c,%al
  40729d:	31 31                	xor    %esi,(%ecx)
  40729f:	32 3b                	xor    (%ebx),%bh
  4072a1:	5f                   	pop    %edi
  4072a2:	6d                   	insl   (%dx),%es:(%edi)
  4072a3:	62 6c 65 6e          	bound  %ebp,0x6e(%ebp,%eiz,2)
  4072a7:	5f                   	pop    %edi
  4072a8:	73 74                	jae    40731e <___crt_xc_end__+0x231e>
  4072aa:	61                   	popa   
  4072ab:	74 65                	je     407312 <___crt_xc_end__+0x2312>
  4072ad:	3a 28                	cmp    (%eax),%ch
  4072af:	35 2c 39 29 2c       	xor    $0x2c29392c,%eax
  4072b4:	38 33                	cmp    %dh,(%ebx)
  4072b6:	32 2c 36             	xor    (%esi,%esi,1),%ch
  4072b9:	34 3b                	xor    $0x3b,%al
  4072bb:	5f                   	pop    %edi
  4072bc:	6d                   	insl   (%dx),%es:(%edi)
  4072bd:	62 74 6f 77          	bound  %esi,0x77(%edi,%ebp,2)
  4072c1:	63 5f 73             	arpl   %bx,0x73(%edi)
  4072c4:	74 61                	je     407327 <___crt_xc_end__+0x2327>
  4072c6:	74 65                	je     40732d <___crt_xc_end__+0x232d>
  4072c8:	3a 28                	cmp    (%eax),%ch
  4072ca:	35 2c 39 29 2c       	xor    $0x2c29392c,%eax
  4072cf:	38 39                	cmp    %bh,(%ecx)
  4072d1:	36                   	ss
  4072d2:	2c 36                	sub    $0x36,%al
  4072d4:	34 3b                	xor    $0x3b,%al
  4072d6:	5f                   	pop    %edi
  4072d7:	77 63                	ja     40733c <___crt_xc_end__+0x233c>
  4072d9:	74 6f                	je     40734a <___crt_xc_end__+0x234a>
  4072db:	6d                   	insl   (%dx),%es:(%edi)
  4072dc:	62 5f 73             	bound  %ebx,0x73(%edi)
  4072df:	74 61                	je     407342 <___crt_xc_end__+0x2342>
  4072e1:	74 65                	je     407348 <___crt_xc_end__+0x2348>
  4072e3:	3a 28                	cmp    (%eax),%ch
  4072e5:	35 2c 39 29 2c       	xor    $0x2c29392c,%eax
  4072ea:	39 36                	cmp    %esi,(%esi)
  4072ec:	30 2c 36             	xor    %ch,(%esi,%esi,1)
  4072ef:	34 3b                	xor    $0x3b,%al
  4072f1:	5f                   	pop    %edi
  4072f2:	6c                   	insb   (%dx),%es:(%edi)
  4072f3:	36                   	ss
  4072f4:	34 61                	xor    $0x61,%al
  4072f6:	5f                   	pop    %edi
  4072f7:	62 75 66             	bound  %esi,0x66(%ebp)
  4072fa:	3a 28                	cmp    (%eax),%ch
  4072fc:	34 2c                	xor    $0x2c,%al
  4072fe:	34 37                	xor    $0x37,%al
  407300:	29 3d 61 72 28 35    	sub    %edi,0x35287261
  407306:	2c 31                	sub    $0x31,%al
  407308:	33 29                	xor    (%ecx),%ebp
  40730a:	3b 30                	cmp    (%eax),%esi
  40730c:	3b 37                	cmp    (%edi),%esi
  40730e:	3b 28                	cmp    (%eax),%ebp
  407310:	30 2c 32             	xor    %ch,(%edx,%esi,1)
  407313:	29 2c 31             	sub    %ebp,(%ecx,%esi,1)
  407316:	30 32                	xor    %dh,(%edx)
  407318:	34 2c                	xor    $0x2c,%al
  40731a:	36                   	ss
  40731b:	34 3b                	xor    $0x3b,%al
  40731d:	5f                   	pop    %edi
  40731e:	73 69                	jae    407389 <___crt_xc_end__+0x2389>
  407320:	67 6e                	outsb  %ds:(%si),(%dx)
  407322:	61                   	popa   
  407323:	6c                   	insb   (%dx),%es:(%edi)
  407324:	5f                   	pop    %edi
  407325:	62 75 66             	bound  %esi,0x66(%ebp)
  407328:	3a 28                	cmp    (%eax),%ch
  40732a:	34 2c                	xor    $0x2c,%al
  40732c:	34 38                	xor    $0x38,%al
  40732e:	29 3d 61 72 28 35    	sub    %edi,0x35287261
  407334:	2c 31                	sub    $0x31,%al
  407336:	33 29                	xor    (%ecx),%ebp
  407338:	3b 30                	cmp    (%eax),%esi
  40733a:	3b 32                	cmp    (%edx),%esi
  40733c:	33 3b                	xor    (%ebx),%edi
  40733e:	28 30                	sub    %dh,(%eax)
  407340:	2c 32                	sub    $0x32,%al
  407342:	29 2c 31             	sub    %ebp,(%ecx,%esi,1)
  407345:	30 38                	xor    %bh,(%eax)
  407347:	38 2c 31             	cmp    %ch,(%ecx,%esi,1)
  40734a:	39 32                	cmp    %esi,(%edx)
  40734c:	3b 5f 67             	cmp    0x67(%edi),%ebx
  40734f:	65                   	gs
  407350:	74 64                	je     4073b6 <___crt_xc_end__+0x23b6>
  407352:	61                   	popa   
  407353:	74 65                	je     4073ba <___crt_xc_end__+0x23ba>
  407355:	5f                   	pop    %edi
  407356:	65                   	gs
  407357:	72 72                	jb     4073cb <___crt_xc_end__+0x23cb>
  407359:	3a 28                	cmp    (%eax),%ch
  40735b:	30 2c 31             	xor    %ch,(%ecx,%esi,1)
  40735e:	29 2c 31             	sub    %ebp,(%ecx,%esi,1)
  407361:	32 38                	xor    (%eax),%bh
  407363:	30 2c 33             	xor    %ch,(%ebx,%esi,1)
  407366:	32 3b                	xor    (%ebx),%bh
  407368:	5f                   	pop    %edi
  407369:	6d                   	insl   (%dx),%es:(%edi)
  40736a:	62 72 6c             	bound  %esi,0x6c(%edx)
  40736d:	65 6e                	outsb  %gs:(%esi),(%dx)
  40736f:	5f                   	pop    %edi
  407370:	73 74                	jae    4073e6 <___crt_xc_end__+0x23e6>
  407372:	61                   	popa   
  407373:	74 65                	je     4073da <___crt_xc_end__+0x23da>
  407375:	3a 28                	cmp    (%eax),%ch
  407377:	35 2c 39 29 2c       	xor    $0x2c29392c,%eax
  40737c:	31 33                	xor    %esi,(%ebx)
  40737e:	31 32                	xor    %esi,(%edx)
  407380:	2c 36                	sub    $0x36,%al
  407382:	34 3b                	xor    $0x3b,%al
  407384:	5f                   	pop    %edi
  407385:	6d                   	insl   (%dx),%es:(%edi)
  407386:	62 72 74             	bound  %esi,0x74(%edx)
  407389:	6f                   	outsl  %ds:(%esi),(%dx)
  40738a:	77 63                	ja     4073ef <___crt_xc_end__+0x23ef>
  40738c:	5f                   	pop    %edi
  40738d:	73 74                	jae    407403 <___crt_xc_end__+0x2403>
  40738f:	61                   	popa   
  407390:	74 65                	je     4073f7 <___crt_xc_end__+0x23f7>
  407392:	3a 28                	cmp    (%eax),%ch
  407394:	35 2c 39 29 2c       	xor    $0x2c29392c,%eax
  407399:	31 33                	xor    %esi,(%ebx)
  40739b:	37                   	aaa    
  40739c:	36                   	ss
  40739d:	2c 36                	sub    $0x36,%al
  40739f:	34 3b                	xor    $0x3b,%al
  4073a1:	5f                   	pop    %edi
  4073a2:	6d                   	insl   (%dx),%es:(%edi)
  4073a3:	62 73 72             	bound  %esi,0x72(%ebx)
  4073a6:	74 6f                	je     407417 <___crt_xc_end__+0x2417>
  4073a8:	77 63                	ja     40740d <___crt_xc_end__+0x240d>
  4073aa:	73 5f                	jae    40740b <___crt_xc_end__+0x240b>
  4073ac:	73 74                	jae    407422 <___crt_xc_end__+0x2422>
  4073ae:	61                   	popa   
  4073af:	74 65                	je     407416 <___crt_xc_end__+0x2416>
  4073b1:	3a 28                	cmp    (%eax),%ch
  4073b3:	35 2c 39 29 2c       	xor    $0x2c29392c,%eax
  4073b8:	31 34 34             	xor    %esi,(%esp,%esi,1)
  4073bb:	30 2c 36             	xor    %ch,(%esi,%esi,1)
  4073be:	34 3b                	xor    $0x3b,%al
  4073c0:	5f                   	pop    %edi
  4073c1:	77 63                	ja     407426 <___crt_xc_end__+0x2426>
  4073c3:	72 74                	jb     407439 <___crt_xc_end__+0x2439>
  4073c5:	6f                   	outsl  %ds:(%esi),(%dx)
  4073c6:	6d                   	insl   (%dx),%es:(%edi)
  4073c7:	62 5f 73             	bound  %ebx,0x73(%edi)
  4073ca:	74 61                	je     40742d <___crt_xc_end__+0x242d>
  4073cc:	74 65                	je     407433 <___crt_xc_end__+0x2433>
  4073ce:	3a 28                	cmp    (%eax),%ch
  4073d0:	35 2c 39 29 2c       	xor    $0x2c29392c,%eax
  4073d5:	31 35 30 34 2c 36    	xor    %esi,0x362c3430
  4073db:	34 3b                	xor    $0x3b,%al
  4073dd:	5f                   	pop    %edi
  4073de:	77 63                	ja     407443 <___crt_xc_end__+0x2443>
  4073e0:	73 72                	jae    407454 <___crt_xc_end__+0x2454>
  4073e2:	74 6f                	je     407453 <___crt_xc_end__+0x2453>
  4073e4:	6d                   	insl   (%dx),%es:(%edi)
  4073e5:	62 73 5f             	bound  %esi,0x5f(%ebx)
  4073e8:	73 74                	jae    40745e <___crt_xc_end__+0x245e>
  4073ea:	61                   	popa   
  4073eb:	74 65                	je     407452 <___crt_xc_end__+0x2452>
  4073ed:	3a 28                	cmp    (%eax),%ch
  4073ef:	35 2c 39 29 2c       	xor    $0x2c29392c,%eax
  4073f4:	31 35 36 38 2c 36    	xor    %esi,0x362c3836
  4073fa:	34 3b                	xor    $0x3b,%al
  4073fc:	5f                   	pop    %edi
  4073fd:	68 5f 65 72 72       	push   $0x7272655f
  407402:	6e                   	outsb  %ds:(%esi),(%dx)
  407403:	6f                   	outsl  %ds:(%esi),(%dx)
  407404:	3a 28                	cmp    (%eax),%ch
  407406:	30 2c 31             	xor    %ch,(%ecx,%esi,1)
  407409:	29 2c 31             	sub    %ebp,(%ecx,%esi,1)
  40740c:	36 33 32             	xor    %ss:(%edx),%esi
  40740f:	2c 33                	sub    $0x33,%al
  407411:	32 3b                	xor    (%ebx),%bh
  407413:	3b 2c 30             	cmp    (%eax,%esi,1),%ebp
  407416:	2c 31                	sub    $0x31,%al
  407418:	36                   	ss
  407419:	36                   	ss
  40741a:	34 3b                	xor    $0x3b,%al
  40741c:	5f                   	pop    %edi
  40741d:	75 6e                	jne    40748d <___crt_xc_end__+0x248d>
  40741f:	75 73                	jne    407494 <___crt_xc_end__+0x2494>
  407421:	65 64 3a 28          	gs cmp %fs:%gs:(%eax),%ch
  407425:	34 2c                	xor    $0x2c,%al
  407427:	34 39                	xor    $0x39,%al
  407429:	29 3d 73 32 34 30    	sub    %edi,0x30343273
  40742f:	5f                   	pop    %edi
  407430:	6e                   	outsb  %ds:(%esi),(%dx)
  407431:	65                   	gs
  407432:	78 74                	js     4074a8 <___crt_xc_end__+0x24a8>
  407434:	66                   	data16
  407435:	3a 28                	cmp    (%eax),%ch
  407437:	34 2c                	xor    $0x2c,%al
  407439:	35 30 29 3d 61       	xor    $0x613d2930,%eax
  40743e:	72 28                	jb     407468 <___crt_xc_end__+0x2468>
  407440:	35 2c 31 33 29       	xor    $0x2933312c,%eax
  407445:	3b 30                	cmp    (%eax),%esi
  407447:	3b 32                	cmp    (%edx),%esi
  407449:	39 3b                	cmp    %edi,(%ebx)
  40744b:	28 34 2c             	sub    %dh,(%esp,%ebp,1)
  40744e:	31 34 29             	xor    %esi,(%ecx,%ebp,1)
  407451:	2c 30                	sub    $0x30,%al
  407453:	2c 39                	sub    $0x39,%al
  407455:	36 30 3b             	xor    %bh,%ss:(%ebx)
  407458:	5f                   	pop    %edi
  407459:	6e                   	outsb  %ds:(%esi),(%dx)
  40745a:	6d                   	insl   (%dx),%es:(%edi)
  40745b:	61                   	popa   
  40745c:	6c                   	insb   (%dx),%es:(%edi)
  40745d:	6c                   	insb   (%dx),%es:(%edi)
  40745e:	6f                   	outsl  %ds:(%esi),(%dx)
  40745f:	63 3a                	arpl   %di,(%edx)
  407461:	28 34 2c             	sub    %dh,(%esp,%ebp,1)
  407464:	35 31 29 3d 61       	xor    $0x613d2931,%eax
  407469:	72 28                	jb     407493 <___crt_xc_end__+0x2493>
  40746b:	35 2c 31 33 29       	xor    $0x2933312c,%eax
  407470:	3b 30                	cmp    (%eax),%esi
  407472:	3b 32                	cmp    (%edx),%esi
  407474:	39 3b                	cmp    %edi,(%ebx)
  407476:	28 30                	sub    %dh,(%eax)
  407478:	2c 34                	sub    $0x34,%al
  40747a:	29 2c 39             	sub    %ebp,(%ecx,%edi,1)
  40747d:	36 30 2c 39          	xor    %ch,%ss:(%ecx,%edi,1)
  407481:	36 30 3b             	xor    %bh,%ss:(%ebx)
  407484:	3b 2c 30             	cmp    (%eax,%esi,1),%ebp
  407487:	2c 31                	sub    $0x31,%al
  407489:	39 32                	cmp    %esi,(%edx)
  40748b:	30 3b                	xor    %bh,(%ebx)
  40748d:	3b 2c 37             	cmp    (%edi,%esi,1),%ebp
  407490:	30 34 2c             	xor    %dh,(%esp,%ebp,1)
  407493:	31 39                	xor    %edi,(%ecx)
  407495:	32 30                	xor    (%eax),%dh
  407497:	3b 5f 61             	cmp    0x61(%edi),%ebx
  40749a:	74 65                	je     407501 <___crt_xc_end__+0x2501>
  40749c:	78 69                	js     407507 <___crt_xc_end__+0x2507>
  40749e:	74 3a                	je     4074da <___crt_xc_end__+0x24da>
  4074a0:	28 34 2c             	sub    %dh,(%esp,%ebp,1)
  4074a3:	39 29                	cmp    %ebp,(%ecx)
  4074a5:	2c 32                	sub    $0x32,%al
  4074a7:	36 32 34 2c          	xor    %ss:(%esp,%ebp,1),%dh
  4074ab:	33 32                	xor    (%edx),%esi
  4074ad:	3b 5f 61             	cmp    0x61(%edi),%ebx
  4074b0:	74 65                	je     407517 <___crt_xc_end__+0x2517>
  4074b2:	78 69                	js     40751d <___crt_xc_end__+0x251d>
  4074b4:	74 30                	je     4074e6 <___crt_xc_end__+0x24e6>
  4074b6:	3a 28                	cmp    (%eax),%ch
  4074b8:	34 2c                	xor    $0x2c,%al
  4074ba:	38 29                	cmp    %ch,(%ecx)
  4074bc:	2c 32                	sub    $0x32,%al
  4074be:	36                   	ss
  4074bf:	35 36 2c 33 32       	xor    $0x32332c36,%eax
  4074c4:	30 30                	xor    %dh,(%eax)
  4074c6:	3b 5f 73             	cmp    0x73(%edi),%ebx
  4074c9:	69 67 5f 66 75 6e 63 	imul   $0x636e7566,0x5f(%edi),%esp
  4074d0:	3a 28                	cmp    (%eax),%ch
  4074d2:	34 2c                	xor    $0x2c,%al
  4074d4:	35 32 29 3d 2a       	xor    $0x2a3d2932,%eax
  4074d9:	28 34 2c             	sub    %dh,(%esp,%ebp,1)
  4074dc:	35 33 29 3d 2a       	xor    $0x2a3d2933,%eax
  4074e1:	28 34 2c             	sub    %dh,(%esp,%ebp,1)
  4074e4:	35 34 29 3d 66       	xor    $0x663d2934,%eax
  4074e9:	28 30                	sub    %dh,(%eax)
  4074eb:	2c 31                	sub    $0x31,%al
  4074ed:	39 29                	cmp    %ebp,(%ecx)
  4074ef:	2c 35                	sub    $0x35,%al
  4074f1:	38 35 36 2c 33 32    	cmp    %dh,0x32332c36
  4074f7:	3b 5f 5f             	cmp    0x5f(%edi),%ebx
  4074fa:	73 67                	jae    407563 <___crt_xc_end__+0x2563>
  4074fc:	6c                   	insb   (%dx),%es:(%edi)
  4074fd:	75 65                	jne    407564 <___crt_xc_end__+0x2564>
  4074ff:	3a 28                	cmp    (%eax),%ch
  407501:	34 2c                	xor    $0x2c,%al
  407503:	33 32                	xor    (%edx),%esi
  407505:	29 2c 35 38 38 38 2c 	sub    %ebp,0x2c383838(,%esi,1)
  40750c:	39 36                	cmp    %esi,(%esi)
  40750e:	3b 5f 5f             	cmp    0x5f(%edi),%ebx
  407511:	73 66                	jae    407579 <___crt_xc_end__+0x2579>
  407513:	3a 28                	cmp    (%eax),%ch
  407515:	34 2c                	xor    $0x2c,%al
  407517:	35 35 29 3d 61       	xor    $0x613d2935,%eax
  40751c:	72 28                	jb     407546 <___crt_xc_end__+0x2546>
  40751e:	35 2c 31 33 29       	xor    $0x2933312c,%eax
  407523:	3b 30                	cmp    (%eax),%esi
  407525:	3b 32                	cmp    (%edx),%esi
  407527:	3b 28                	cmp    (%eax),%ebp
  407529:	34 2c                	xor    $0x2c,%al
  40752b:	33 31                	xor    (%ecx),%esi
  40752d:	29 2c 36             	sub    %ebp,(%esi,%esi,1)
  407530:	30 31                	xor    %dh,(%ecx)
  407532:	36                   	ss
  407533:	2c 32                	sub    $0x32,%al
  407535:	36 38 38             	cmp    %bh,%ss:(%eax)
  407538:	3b 3b                	cmp    (%ebx),%edi
  40753a:	00 2f                	add    %ch,(%edi)
  40753c:	75 73                	jne    4075b1 <___crt_xc_end__+0x25b1>
  40753e:	72 2f                	jb     40756f <___crt_xc_end__+0x256f>
  407540:	69 6e 63 6c 75 64 65 	imul   $0x6564756c,0x63(%esi),%ebp
  407547:	2f                   	das    
  407548:	73 79                	jae    4075c3 <___crt_xc_end__+0x25c3>
  40754a:	73 2f                	jae    40757b <___crt_xc_end__+0x257b>
  40754c:	74 79                	je     4075c7 <___crt_xc_end__+0x25c7>
  40754e:	70 65                	jo     4075b5 <___crt_xc_end__+0x25b5>
  407550:	73 2e                	jae    407580 <___crt_xc_end__+0x2580>
  407552:	68 00 70 74 72       	push   $0x72747000
  407557:	64 69 66 66 5f 74 3a 	imul   $0x743a745f,%fs:0x66(%esi),%esp
  40755e:	74 
  40755f:	28 31                	sub    %dh,(%ecx)
  407561:	31 2c 31             	xor    %ebp,(%ecx,%esi,1)
  407564:	29 3d 28 30 2c 31    	sub    %edi,0x312c3028
  40756a:	29 00                	sub    %eax,(%eax)
  40756c:	77 63                	ja     4075d1 <___crt_xc_end__+0x25d1>
  40756e:	68 61 72 5f 74       	push   $0x745f7261
  407573:	3a 74 28 31          	cmp    0x31(%eax,%ebp,1),%dh
  407577:	31 2c 32             	xor    %ebp,(%edx,%esi,1)
  40757a:	29 3d 28 30 2c 39    	sub    %edi,0x392c3028
  407580:	29 00                	sub    %eax,(%eax)
  407582:	2f                   	das    
  407583:	75 73                	jne    4075f8 <___crt_xc_end__+0x25f8>
  407585:	72 2f                	jb     4075b6 <___crt_xc_end__+0x25b6>
  407587:	69 6e 63 6c 75 64 65 	imul   $0x6564756c,0x63(%esi),%ebp
  40758e:	2f                   	das    
  40758f:	6d                   	insl   (%dx),%es:(%edi)
  407590:	61                   	popa   
  407591:	63 68 69             	arpl   %bp,0x69(%eax)
  407594:	6e                   	outsb  %ds:(%esi),(%dx)
  407595:	65                   	gs
  407596:	2f                   	das    
  407597:	74 79                	je     407612 <___crt_xc_end__+0x2612>
  407599:	70 65                	jo     407600 <___crt_xc_end__+0x2600>
  40759b:	73 2e                	jae    4075cb <___crt_xc_end__+0x25cb>
  40759d:	68 00 5f 5f 6f       	push   $0x6f5f5f00
  4075a2:	66 66 5f             	data32 pop %di
  4075a5:	74 3a                	je     4075e1 <___crt_xc_end__+0x25e1>
  4075a7:	74 28                	je     4075d1 <___crt_xc_end__+0x25d1>
  4075a9:	31 32                	xor    %esi,(%edx)
  4075ab:	2c 31                	sub    $0x31,%al
  4075ad:	29 3d 28 30 2c 33    	sub    %edi,0x332c3028
  4075b3:	29 00                	sub    %eax,(%eax)
  4075b5:	5f                   	pop    %edi
  4075b6:	5f                   	pop    %edi
  4075b7:	70 69                	jo     407622 <___crt_xc_end__+0x2622>
  4075b9:	64                   	fs
  4075ba:	5f                   	pop    %edi
  4075bb:	74 3a                	je     4075f7 <___crt_xc_end__+0x25f7>
  4075bd:	74 28                	je     4075e7 <___crt_xc_end__+0x25e7>
  4075bf:	31 32                	xor    %esi,(%edx)
  4075c1:	2c 32                	sub    $0x32,%al
  4075c3:	29 3d 28 30 2c 31    	sub    %edi,0x312c3028
  4075c9:	29 00                	sub    %eax,(%eax)
  4075cb:	5f                   	pop    %edi
  4075cc:	5f                   	pop    %edi
  4075cd:	6c                   	insb   (%dx),%es:(%edi)
  4075ce:	6f                   	outsl  %ds:(%esi),(%dx)
  4075cf:	66 66 5f             	data32 pop %di
  4075d2:	74 3a                	je     40760e <___crt_xc_end__+0x260e>
  4075d4:	74 28                	je     4075fe <___crt_xc_end__+0x25fe>
  4075d6:	31 32                	xor    %esi,(%edx)
  4075d8:	2c 33                	sub    $0x33,%al
  4075da:	29 3d 28 30 2c 36    	sub    %edi,0x362c3028
  4075e0:	29 00                	sub    %eax,(%eax)
  4075e2:	75 5f                	jne    407643 <___crt_xc_end__+0x2643>
  4075e4:	63 68 61             	arpl   %bp,0x61(%eax)
  4075e7:	72 3a                	jb     407623 <___crt_xc_end__+0x2623>
  4075e9:	74 28                	je     407613 <___crt_xc_end__+0x2613>
  4075eb:	31 30                	xor    %esi,(%eax)
  4075ed:	2c 31                	sub    $0x31,%al
  4075ef:	29 3d 28 30 2c 31    	sub    %edi,0x312c3028
  4075f5:	31 29                	xor    %ebp,(%ecx)
  4075f7:	00 75 5f             	add    %dh,0x5f(%ebp)
  4075fa:	73 68                	jae    407664 <___crt_xc_end__+0x2664>
  4075fc:	6f                   	outsl  %ds:(%esi),(%dx)
  4075fd:	72 74                	jb     407673 <___crt_xc_end__+0x2673>
  4075ff:	3a 74 28 31          	cmp    0x31(%eax,%ebp,1),%dh
  407603:	30 2c 32             	xor    %ch,(%edx,%esi,1)
  407606:	29 3d 28 30 2c 39    	sub    %edi,0x392c3028
  40760c:	29 00                	sub    %eax,(%eax)
  40760e:	75 5f                	jne    40766f <___crt_xc_end__+0x266f>
  407610:	69 6e 74 3a 74 28 31 	imul   $0x3128743a,0x74(%esi),%ebp
  407617:	30 2c 33             	xor    %ch,(%ebx,%esi,1)
  40761a:	29 3d 28 30 2c 34    	sub    %edi,0x342c3028
  407620:	29 00                	sub    %eax,(%eax)
  407622:	75 5f                	jne    407683 <___crt_xc_end__+0x2683>
  407624:	6c                   	insb   (%dx),%es:(%edi)
  407625:	6f                   	outsl  %ds:(%esi),(%dx)
  407626:	6e                   	outsb  %ds:(%esi),(%dx)
  407627:	67 3a 74 28          	cmp    0x28(%si),%dh
  40762b:	31 30                	xor    %esi,(%eax)
  40762d:	2c 34                	sub    $0x34,%al
  40762f:	29 3d 28 30 2c 35    	sub    %edi,0x352c3028
  407635:	29 00                	sub    %eax,(%eax)
  407637:	75 73                	jne    4076ac <___crt_xc_end__+0x26ac>
  407639:	68 6f 72 74 3a       	push   $0x3a74726f
  40763e:	74 28                	je     407668 <___crt_xc_end__+0x2668>
  407640:	31 30                	xor    %esi,(%eax)
  407642:	2c 35                	sub    $0x35,%al
  407644:	29 3d 28 30 2c 39    	sub    %edi,0x392c3028
  40764a:	29 00                	sub    %eax,(%eax)
  40764c:	75 69                	jne    4076b7 <___crt_xc_end__+0x26b7>
  40764e:	6e                   	outsb  %ds:(%esi),(%dx)
  40764f:	74 3a                	je     40768b <___crt_xc_end__+0x268b>
  407651:	74 28                	je     40767b <___crt_xc_end__+0x267b>
  407653:	31 30                	xor    %esi,(%eax)
  407655:	2c 36                	sub    $0x36,%al
  407657:	29 3d 28 30 2c 34    	sub    %edi,0x342c3028
  40765d:	29 00                	sub    %eax,(%eax)
  40765f:	75 6c                	jne    4076cd <___crt_xc_end__+0x26cd>
  407661:	6f                   	outsl  %ds:(%esi),(%dx)
  407662:	6e                   	outsb  %ds:(%esi),(%dx)
  407663:	67 3a 74 28          	cmp    0x28(%si),%dh
  407667:	31 30                	xor    %esi,(%eax)
  407669:	2c 37                	sub    $0x37,%al
  40766b:	29 3d 28 30 2c 35    	sub    %edi,0x352c3028
  407671:	29 00                	sub    %eax,(%eax)
  407673:	63 6c 6f 63          	arpl   %bp,0x63(%edi,%ebp,2)
  407677:	6b 5f 74 3a          	imul   $0x3a,0x74(%edi),%ebx
  40767b:	74 28                	je     4076a5 <___crt_xc_end__+0x26a5>
  40767d:	31 30                	xor    %esi,(%eax)
  40767f:	2c 38                	sub    $0x38,%al
  407681:	29 3d 28 30 2c 35    	sub    %edi,0x352c3028
  407687:	29 00                	sub    %eax,(%eax)
  407689:	74 69                	je     4076f4 <___crt_xc_end__+0x26f4>
  40768b:	6d                   	insl   (%dx),%es:(%edi)
  40768c:	65                   	gs
  40768d:	5f                   	pop    %edi
  40768e:	74 3a                	je     4076ca <___crt_xc_end__+0x26ca>
  407690:	74 28                	je     4076ba <___crt_xc_end__+0x26ba>
  407692:	31 30                	xor    %esi,(%eax)
  407694:	2c 39                	sub    $0x39,%al
  407696:	29 3d 28 30 2c 33    	sub    %edi,0x332c3028
  40769c:	29 00                	sub    %eax,(%eax)
  40769e:	74 69                	je     407709 <___crt_xc_end__+0x2709>
  4076a0:	6d                   	insl   (%dx),%es:(%edi)
  4076a1:	65                   	gs
  4076a2:	73 70                	jae    407714 <___crt_xc_end__+0x2714>
  4076a4:	65 63 3a             	arpl   %di,%gs:(%edx)
  4076a7:	54                   	push   %esp
  4076a8:	28 31                	sub    %dh,(%ecx)
  4076aa:	30 2c 31             	xor    %ch,(%ecx,%esi,1)
  4076ad:	30 29                	xor    %ch,(%ecx)
  4076af:	3d 73 38 74 76       	cmp    $0x76743873,%eax
  4076b4:	5f                   	pop    %edi
  4076b5:	73 65                	jae    40771c <___crt_xc_end__+0x271c>
  4076b7:	63 3a                	arpl   %di,(%edx)
  4076b9:	28 31                	sub    %dh,(%ecx)
  4076bb:	30 2c 39             	xor    %ch,(%ecx,%edi,1)
  4076be:	29 2c 30             	sub    %ebp,(%eax,%esi,1)
  4076c1:	2c 33                	sub    $0x33,%al
  4076c3:	32 3b                	xor    (%ebx),%bh
  4076c5:	74 76                	je     40773d <___crt_xc_end__+0x273d>
  4076c7:	5f                   	pop    %edi
  4076c8:	6e                   	outsb  %ds:(%esi),(%dx)
  4076c9:	73 65                	jae    407730 <___crt_xc_end__+0x2730>
  4076cb:	63 3a                	arpl   %di,(%edx)
  4076cd:	28 30                	sub    %dh,(%eax)
  4076cf:	2c 33                	sub    $0x33,%al
  4076d1:	29 2c 33             	sub    %ebp,(%ebx,%esi,1)
  4076d4:	32 2c 33             	xor    (%ebx,%esi,1),%ch
  4076d7:	32 3b                	xor    (%ebx),%bh
  4076d9:	3b 00                	cmp    (%eax),%eax
  4076db:	69 74 69 6d 65 72 73 	imul   $0x70737265,0x6d(%ecx,%ebp,2),%esi
  4076e2:	70 
  4076e3:	65 63 3a             	arpl   %di,%gs:(%edx)
  4076e6:	54                   	push   %esp
  4076e7:	28 31                	sub    %dh,(%ecx)
  4076e9:	30 2c 31             	xor    %ch,(%ecx,%esi,1)
  4076ec:	31 29                	xor    %ebp,(%ecx)
  4076ee:	3d 73 31 36 69       	cmp    $0x69363173,%eax
  4076f3:	74 5f                	je     407754 <___crt_xc_end__+0x2754>
  4076f5:	69 6e 74 65 72 76 61 	imul   $0x61767265,0x74(%esi),%ebp
  4076fc:	6c                   	insb   (%dx),%es:(%edi)
  4076fd:	3a 28                	cmp    (%eax),%ch
  4076ff:	31 30                	xor    %esi,(%eax)
  407701:	2c 31                	sub    $0x31,%al
  407703:	30 29                	xor    %ch,(%ecx)
  407705:	2c 30                	sub    $0x30,%al
  407707:	2c 36                	sub    $0x36,%al
  407709:	34 3b                	xor    $0x3b,%al
  40770b:	69 74 5f 76 61 6c 75 	imul   $0x65756c61,0x76(%edi,%ebx,2),%esi
  407712:	65 
  407713:	3a 28                	cmp    (%eax),%ch
  407715:	31 30                	xor    %esi,(%eax)
  407717:	2c 31                	sub    $0x31,%al
  407719:	30 29                	xor    %ch,(%ecx)
  40771b:	2c 36                	sub    $0x36,%al
  40771d:	34 2c                	xor    $0x2c,%al
  40771f:	36                   	ss
  407720:	34 3b                	xor    $0x3b,%al
  407722:	3b 00                	cmp    (%eax),%eax
  407724:	64                   	fs
  407725:	61                   	popa   
  407726:	64                   	fs
  407727:	64                   	fs
  407728:	72 5f                	jb     407789 <___crt_xc_end__+0x2789>
  40772a:	74 3a                	je     407766 <___crt_xc_end__+0x2766>
  40772c:	74 28                	je     407756 <___crt_xc_end__+0x2756>
  40772e:	31 30                	xor    %esi,(%eax)
  407730:	2c 31                	sub    $0x31,%al
  407732:	32 29                	xor    (%ecx),%ch
  407734:	3d 28 30 2c 33       	cmp    $0x332c3028,%eax
  407739:	29 00                	sub    %eax,(%eax)
  40773b:	63 61 64             	arpl   %sp,0x64(%ecx)
  40773e:	64                   	fs
  40773f:	72 5f                	jb     4077a0 <___crt_xc_end__+0x27a0>
  407741:	74 3a                	je     40777d <___crt_xc_end__+0x277d>
  407743:	74 28                	je     40776d <___crt_xc_end__+0x276d>
  407745:	31 30                	xor    %esi,(%eax)
  407747:	2c 31                	sub    $0x31,%al
  407749:	33 29                	xor    (%ecx),%ebp
  40774b:	3d 28 34 2c 34       	cmp    $0x342c3428,%eax
  407750:	33 29                	xor    (%ecx),%ebp
  407752:	00 70 69             	add    %dh,0x69(%eax)
  407755:	64                   	fs
  407756:	5f                   	pop    %edi
  407757:	74 3a                	je     407793 <___crt_xc_end__+0x2793>
  407759:	74 28                	je     407783 <___crt_xc_end__+0x2783>
  40775b:	31 30                	xor    %esi,(%eax)
  40775d:	2c 31                	sub    $0x31,%al
  40775f:	34 29                	xor    $0x29,%al
  407761:	3d 28 30 2c 31       	cmp    $0x312c3028,%eax
  407766:	29 00                	sub    %eax,(%eax)
  407768:	73 73                	jae    4077dd <___crt_xc_end__+0x27dd>
  40776a:	69 7a 65 5f 74 3a 74 	imul   $0x743a745f,0x65(%edx),%edi
  407771:	28 31                	sub    %dh,(%ecx)
  407773:	30 2c 31             	xor    %ch,(%ecx,%esi,1)
  407776:	35 29 3d 28 35       	xor    $0x35283d29,%eax
  40777b:	2c 38                	sub    $0x38,%al
  40777d:	29 00                	sub    %eax,(%eax)
  40777f:	6e                   	outsb  %ds:(%esi),(%dx)
  407780:	6c                   	insb   (%dx),%es:(%edi)
  407781:	69 6e 6b 5f 74 3a 74 	imul   $0x743a745f,0x6b(%esi),%ebp
  407788:	28 31                	sub    %dh,(%ecx)
  40778a:	30 2c 31             	xor    %ch,(%ecx,%esi,1)
  40778d:	36 29 3d 28 30 2c 39 	sub    %edi,%ss:0x392c3028
  407794:	29 00                	sub    %eax,(%eax)
  407796:	66                   	data16
  407797:	64                   	fs
  407798:	5f                   	pop    %edi
  407799:	6d                   	insl   (%dx),%es:(%edi)
  40779a:	61                   	popa   
  40779b:	73 6b                	jae    407808 <___crt_xc_end__+0x2808>
  40779d:	3a 74 28 31          	cmp    0x31(%eax,%ebp,1),%dh
  4077a1:	30 2c 31             	xor    %ch,(%ecx,%esi,1)
  4077a4:	37                   	aaa    
  4077a5:	29 3d 28 30 2c 33    	sub    %edi,0x332c3028
  4077ab:	29 00                	sub    %eax,(%eax)
  4077ad:	5f                   	pop    %edi
  4077ae:	74 79                	je     407829 <___crt_xc_end__+0x2829>
  4077b0:	70 65                	jo     407817 <___crt_xc_end__+0x2817>
  4077b2:	73 5f                	jae    407813 <___crt_xc_end__+0x2813>
  4077b4:	66                   	data16
  4077b5:	64                   	fs
  4077b6:	5f                   	pop    %edi
  4077b7:	73 65                	jae    40781e <___crt_xc_end__+0x281e>
  4077b9:	74 3a                	je     4077f5 <___crt_xc_end__+0x27f5>
  4077bb:	54                   	push   %esp
  4077bc:	28 31                	sub    %dh,(%ecx)
  4077be:	30 2c 31             	xor    %ch,(%ecx,%esi,1)
  4077c1:	38 29                	cmp    %ch,(%ecx)
  4077c3:	3d 73 38 66 64       	cmp    $0x64663873,%eax
  4077c8:	73 5f                	jae    407829 <___crt_xc_end__+0x2829>
  4077ca:	62 69 74             	bound  %ebp,0x74(%ecx)
  4077cd:	73 3a                	jae    407809 <___crt_xc_end__+0x2809>
  4077cf:	28 31                	sub    %dh,(%ecx)
  4077d1:	30 2c 31             	xor    %ch,(%ecx,%esi,1)
  4077d4:	39 29                	cmp    %ebp,(%ecx)
  4077d6:	3d 61 72 28 35       	cmp    $0x35287261,%eax
  4077db:	2c 31                	sub    $0x31,%al
  4077dd:	33 29                	xor    (%ecx),%ebp
  4077df:	3b 30                	cmp    (%eax),%esi
  4077e1:	3b 31                	cmp    (%ecx),%esi
  4077e3:	3b 28                	cmp    (%eax),%ebp
  4077e5:	31 30                	xor    %esi,(%eax)
  4077e7:	2c 31                	sub    $0x31,%al
  4077e9:	37                   	aaa    
  4077ea:	29 2c 30             	sub    %ebp,(%eax,%esi,1)
  4077ed:	2c 36                	sub    $0x36,%al
  4077ef:	34 3b                	xor    $0x3b,%al
  4077f1:	3b 00                	cmp    (%eax),%eax
  4077f3:	5f                   	pop    %edi
  4077f4:	74 79                	je     40786f <___crt_xc_end__+0x286f>
  4077f6:	70 65                	jo     40785d <___crt_xc_end__+0x285d>
  4077f8:	73 5f                	jae    407859 <___crt_xc_end__+0x2859>
  4077fa:	66                   	data16
  4077fb:	64                   	fs
  4077fc:	5f                   	pop    %edi
  4077fd:	73 65                	jae    407864 <___crt_xc_end__+0x2864>
  4077ff:	74 3a                	je     40783b <___crt_xc_end__+0x283b>
  407801:	74 28                	je     40782b <___crt_xc_end__+0x282b>
  407803:	31 30                	xor    %esi,(%eax)
  407805:	2c 32                	sub    $0x32,%al
  407807:	30 29                	xor    %ch,(%ecx)
  407809:	3d 28 31 30 2c       	cmp    $0x2c303128,%eax
  40780e:	31 38                	xor    %edi,(%eax)
  407810:	29 00                	sub    %eax,(%eax)
  407812:	63 6c 6f 63          	arpl   %bp,0x63(%edi,%ebp,2)
  407816:	6b 69 64 5f          	imul   $0x5f,0x64(%ecx),%ebp
  40781a:	74 3a                	je     407856 <___crt_xc_end__+0x2856>
  40781c:	74 28                	je     407846 <___crt_xc_end__+0x2846>
  40781e:	31 30                	xor    %esi,(%eax)
  407820:	2c 32                	sub    $0x32,%al
  407822:	31 29                	xor    %ebp,(%ecx)
  407824:	3d 28 30 2c 35       	cmp    $0x352c3028,%eax
  407829:	29 00                	sub    %eax,(%eax)
  40782b:	74 69                	je     407896 <___crt_xc_end__+0x2896>
  40782d:	6d                   	insl   (%dx),%es:(%edi)
  40782e:	65                   	gs
  40782f:	72 5f                	jb     407890 <___crt_xc_end__+0x2890>
  407831:	74 3a                	je     40786d <___crt_xc_end__+0x286d>
  407833:	74 28                	je     40785d <___crt_xc_end__+0x285d>
  407835:	31 30                	xor    %esi,(%eax)
  407837:	2c 32                	sub    $0x32,%al
  407839:	32 29                	xor    (%ecx),%ch
  40783b:	3d 28 30 2c 35       	cmp    $0x352c3028,%eax
  407840:	29 00                	sub    %eax,(%eax)
  407842:	75 73                	jne    4078b7 <___crt_xc_end__+0x28b7>
  407844:	65 63 6f 6e          	arpl   %bp,%gs:0x6e(%edi)
  407848:	64                   	fs
  407849:	73 5f                	jae    4078aa <___crt_xc_end__+0x28aa>
  40784b:	74 3a                	je     407887 <___crt_xc_end__+0x2887>
  40784d:	74 28                	je     407877 <___crt_xc_end__+0x2877>
  40784f:	31 30                	xor    %esi,(%eax)
  407851:	2c 32                	sub    $0x32,%al
  407853:	33 29                	xor    (%ecx),%ebp
  407855:	3d 28 30 2c 35       	cmp    $0x352c3028,%eax
  40785a:	29 00                	sub    %eax,(%eax)
  40785c:	73 75                	jae    4078d3 <___crt_xc_end__+0x28d3>
  40785e:	73 65                	jae    4078c5 <___crt_xc_end__+0x28c5>
  407860:	63 6f 6e             	arpl   %bp,0x6e(%edi)
  407863:	64                   	fs
  407864:	73 5f                	jae    4078c5 <___crt_xc_end__+0x28c5>
  407866:	74 3a                	je     4078a2 <___crt_xc_end__+0x28a2>
  407868:	74 28                	je     407892 <___crt_xc_end__+0x2892>
  40786a:	31 30                	xor    %esi,(%eax)
  40786c:	2c 32                	sub    $0x32,%al
  40786e:	34 29                	xor    $0x29,%al
  407870:	3d 28 30 2c 33       	cmp    $0x332c3028,%eax
  407875:	29 00                	sub    %eax,(%eax)
  407877:	2f                   	das    
  407878:	75 73                	jne    4078ed <___crt_xc_end__+0x28ed>
  40787a:	72 2f                	jb     4078ab <___crt_xc_end__+0x28ab>
  40787c:	69 6e 63 6c 75 64 65 	imul   $0x6564756c,0x63(%esi),%ebp
  407883:	2f                   	das    
  407884:	63 79 67             	arpl   %di,0x67(%ecx)
  407887:	77 69                	ja     4078f2 <___crt_xc_end__+0x28f2>
  407889:	6e                   	outsb  %ds:(%esi),(%dx)
  40788a:	2f                   	das    
  40788b:	74 79                	je     407906 <___crt_xc_end__+0x2906>
  40788d:	70 65                	jo     4078f4 <___crt_xc_end__+0x28f4>
  40788f:	73 2e                	jae    4078bf <___crt_xc_end__+0x28bf>
  407891:	68 00 2f 75 73       	push   $0x73752f00
  407896:	72 2f                	jb     4078c7 <___crt_xc_end__+0x28c7>
  407898:	69 6e 63 6c 75 64 65 	imul   $0x6564756c,0x63(%esi),%ebp
  40789f:	2f                   	das    
  4078a0:	73 74                	jae    407916 <___crt_xc_end__+0x2916>
  4078a2:	64 69 6e 74 2e 68 00 	imul   $0x6900682e,%fs:0x74(%esi),%ebp
  4078a9:	69 
  4078aa:	6e                   	outsb  %ds:(%esi),(%dx)
  4078ab:	74 38                	je     4078e5 <___crt_xc_end__+0x28e5>
  4078ad:	5f                   	pop    %edi
  4078ae:	74 3a                	je     4078ea <___crt_xc_end__+0x28ea>
  4078b0:	74 28                	je     4078da <___crt_xc_end__+0x28da>
  4078b2:	31 34 2c             	xor    %esi,(%esp,%ebp,1)
  4078b5:	31 29                	xor    %ebp,(%ecx)
  4078b7:	3d 28 30 2c 31       	cmp    $0x312c3028,%eax
  4078bc:	30 29                	xor    %ch,(%ecx)
  4078be:	00 69 6e             	add    %ch,0x6e(%ecx)
  4078c1:	74 31                	je     4078f4 <___crt_xc_end__+0x28f4>
  4078c3:	36                   	ss
  4078c4:	5f                   	pop    %edi
  4078c5:	74 3a                	je     407901 <___crt_xc_end__+0x2901>
  4078c7:	74 28                	je     4078f1 <___crt_xc_end__+0x28f1>
  4078c9:	31 34 2c             	xor    %esi,(%esp,%ebp,1)
  4078cc:	32 29                	xor    (%ecx),%ch
  4078ce:	3d 28 30 2c 38       	cmp    $0x382c3028,%eax
  4078d3:	29 00                	sub    %eax,(%eax)
  4078d5:	69 6e 74 33 32 5f 74 	imul   $0x745f3233,0x74(%esi),%ebp
  4078dc:	3a 74 28 31          	cmp    0x31(%eax,%ebp,1),%dh
  4078e0:	34 2c                	xor    $0x2c,%al
  4078e2:	33 29                	xor    (%ecx),%ebp
  4078e4:	3d 28 30 2c 31       	cmp    $0x312c3028,%eax
  4078e9:	29 00                	sub    %eax,(%eax)
  4078eb:	69 6e 74 36 34 5f 74 	imul   $0x745f3436,0x74(%esi),%ebp
  4078f2:	3a 74 28 31          	cmp    0x31(%eax,%ebp,1),%dh
  4078f6:	34 2c                	xor    $0x2c,%al
  4078f8:	34 29                	xor    $0x29,%al
  4078fa:	3d 28 30 2c 36       	cmp    $0x362c3028,%eax
  4078ff:	29 00                	sub    %eax,(%eax)
  407901:	75 69                	jne    40796c <___crt_xc_end__+0x296c>
  407903:	6e                   	outsb  %ds:(%esi),(%dx)
  407904:	74 38                	je     40793e <___crt_xc_end__+0x293e>
  407906:	5f                   	pop    %edi
  407907:	74 3a                	je     407943 <___crt_xc_end__+0x2943>
  407909:	74 28                	je     407933 <___crt_xc_end__+0x2933>
  40790b:	31 34 2c             	xor    %esi,(%esp,%ebp,1)
  40790e:	35 29 3d 28 30       	xor    $0x30283d29,%eax
  407913:	2c 31                	sub    $0x31,%al
  407915:	31 29                	xor    %ebp,(%ecx)
  407917:	00 75 69             	add    %dh,0x69(%ebp)
  40791a:	6e                   	outsb  %ds:(%esi),(%dx)
  40791b:	74 31                	je     40794e <___crt_xc_end__+0x294e>
  40791d:	36                   	ss
  40791e:	5f                   	pop    %edi
  40791f:	74 3a                	je     40795b <___crt_xc_end__+0x295b>
  407921:	74 28                	je     40794b <___crt_xc_end__+0x294b>
  407923:	31 34 2c             	xor    %esi,(%esp,%ebp,1)
  407926:	36 29 3d 28 30 2c 39 	sub    %edi,%ss:0x392c3028
  40792d:	29 00                	sub    %eax,(%eax)
  40792f:	75 69                	jne    40799a <___crt_xc_end__+0x299a>
  407931:	6e                   	outsb  %ds:(%esi),(%dx)
  407932:	74 33                	je     407967 <___crt_xc_end__+0x2967>
  407934:	32 5f 74             	xor    0x74(%edi),%bl
  407937:	3a 74 28 31          	cmp    0x31(%eax,%ebp,1),%dh
  40793b:	34 2c                	xor    $0x2c,%al
  40793d:	37                   	aaa    
  40793e:	29 3d 28 30 2c 34    	sub    %edi,0x342c3028
  407944:	29 00                	sub    %eax,(%eax)
  407946:	75 69                	jne    4079b1 <___crt_xc_end__+0x29b1>
  407948:	6e                   	outsb  %ds:(%esi),(%dx)
  407949:	74 36                	je     407981 <___crt_xc_end__+0x2981>
  40794b:	34 5f                	xor    $0x5f,%al
  40794d:	74 3a                	je     407989 <___crt_xc_end__+0x2989>
  40794f:	74 28                	je     407979 <___crt_xc_end__+0x2979>
  407951:	31 34 2c             	xor    %esi,(%esp,%ebp,1)
  407954:	38 29                	cmp    %ch,(%ecx)
  407956:	3d 28 30 2c 37       	cmp    $0x372c3028,%eax
  40795b:	29 00                	sub    %eax,(%eax)
  40795d:	69 6e 74 5f 6c 65 61 	imul   $0x61656c5f,0x74(%esi),%ebp
  407964:	73 74                	jae    4079da <___crt_xc_end__+0x29da>
  407966:	38 5f 74             	cmp    %bl,0x74(%edi)
  407969:	3a 74 28 31          	cmp    0x31(%eax,%ebp,1),%dh
  40796d:	34 2c                	xor    $0x2c,%al
  40796f:	39 29                	cmp    %ebp,(%ecx)
  407971:	3d 28 30 2c 31       	cmp    $0x312c3028,%eax
  407976:	30 29                	xor    %ch,(%ecx)
  407978:	00 69 6e             	add    %ch,0x6e(%ecx)
  40797b:	74 5f                	je     4079dc <___crt_xc_end__+0x29dc>
  40797d:	6c                   	insb   (%dx),%es:(%edi)
  40797e:	65                   	gs
  40797f:	61                   	popa   
  407980:	73 74                	jae    4079f6 <___crt_xc_end__+0x29f6>
  407982:	31 36                	xor    %esi,(%esi)
  407984:	5f                   	pop    %edi
  407985:	74 3a                	je     4079c1 <___crt_xc_end__+0x29c1>
  407987:	74 28                	je     4079b1 <___crt_xc_end__+0x29b1>
  407989:	31 34 2c             	xor    %esi,(%esp,%ebp,1)
  40798c:	31 30                	xor    %esi,(%eax)
  40798e:	29 3d 28 30 2c 38    	sub    %edi,0x382c3028
  407994:	29 00                	sub    %eax,(%eax)
  407996:	69 6e 74 5f 6c 65 61 	imul   $0x61656c5f,0x74(%esi),%ebp
  40799d:	73 74                	jae    407a13 <___crt_xc_end__+0x2a13>
  40799f:	33 32                	xor    (%edx),%esi
  4079a1:	5f                   	pop    %edi
  4079a2:	74 3a                	je     4079de <___crt_xc_end__+0x29de>
  4079a4:	74 28                	je     4079ce <___crt_xc_end__+0x29ce>
  4079a6:	31 34 2c             	xor    %esi,(%esp,%ebp,1)
  4079a9:	31 31                	xor    %esi,(%ecx)
  4079ab:	29 3d 28 30 2c 31    	sub    %edi,0x312c3028
  4079b1:	29 00                	sub    %eax,(%eax)
  4079b3:	69 6e 74 5f 6c 65 61 	imul   $0x61656c5f,0x74(%esi),%ebp
  4079ba:	73 74                	jae    407a30 <___crt_xc_end__+0x2a30>
  4079bc:	36                   	ss
  4079bd:	34 5f                	xor    $0x5f,%al
  4079bf:	74 3a                	je     4079fb <___crt_xc_end__+0x29fb>
  4079c1:	74 28                	je     4079eb <___crt_xc_end__+0x29eb>
  4079c3:	31 34 2c             	xor    %esi,(%esp,%ebp,1)
  4079c6:	31 32                	xor    %esi,(%edx)
  4079c8:	29 3d 28 30 2c 36    	sub    %edi,0x362c3028
  4079ce:	29 00                	sub    %eax,(%eax)
  4079d0:	75 69                	jne    407a3b <___crt_xc_end__+0x2a3b>
  4079d2:	6e                   	outsb  %ds:(%esi),(%dx)
  4079d3:	74 5f                	je     407a34 <___crt_xc_end__+0x2a34>
  4079d5:	6c                   	insb   (%dx),%es:(%edi)
  4079d6:	65                   	gs
  4079d7:	61                   	popa   
  4079d8:	73 74                	jae    407a4e <___crt_xc_end__+0x2a4e>
  4079da:	38 5f 74             	cmp    %bl,0x74(%edi)
  4079dd:	3a 74 28 31          	cmp    0x31(%eax,%ebp,1),%dh
  4079e1:	34 2c                	xor    $0x2c,%al
  4079e3:	31 33                	xor    %esi,(%ebx)
  4079e5:	29 3d 28 30 2c 31    	sub    %edi,0x312c3028
  4079eb:	31 29                	xor    %ebp,(%ecx)
  4079ed:	00 75 69             	add    %dh,0x69(%ebp)
  4079f0:	6e                   	outsb  %ds:(%esi),(%dx)
  4079f1:	74 5f                	je     407a52 <___crt_xc_end__+0x2a52>
  4079f3:	6c                   	insb   (%dx),%es:(%edi)
  4079f4:	65                   	gs
  4079f5:	61                   	popa   
  4079f6:	73 74                	jae    407a6c <___crt_xc_end__+0x2a6c>
  4079f8:	31 36                	xor    %esi,(%esi)
  4079fa:	5f                   	pop    %edi
  4079fb:	74 3a                	je     407a37 <___crt_xc_end__+0x2a37>
  4079fd:	74 28                	je     407a27 <___crt_xc_end__+0x2a27>
  4079ff:	31 34 2c             	xor    %esi,(%esp,%ebp,1)
  407a02:	31 34 29             	xor    %esi,(%ecx,%ebp,1)
  407a05:	3d 28 30 2c 39       	cmp    $0x392c3028,%eax
  407a0a:	29 00                	sub    %eax,(%eax)
  407a0c:	75 69                	jne    407a77 <___crt_xc_end__+0x2a77>
  407a0e:	6e                   	outsb  %ds:(%esi),(%dx)
  407a0f:	74 5f                	je     407a70 <___crt_xc_end__+0x2a70>
  407a11:	6c                   	insb   (%dx),%es:(%edi)
  407a12:	65                   	gs
  407a13:	61                   	popa   
  407a14:	73 74                	jae    407a8a <___crt_xc_end__+0x2a8a>
  407a16:	33 32                	xor    (%edx),%esi
  407a18:	5f                   	pop    %edi
  407a19:	74 3a                	je     407a55 <___crt_xc_end__+0x2a55>
  407a1b:	74 28                	je     407a45 <___crt_xc_end__+0x2a45>
  407a1d:	31 34 2c             	xor    %esi,(%esp,%ebp,1)
  407a20:	31 35 29 3d 28 30    	xor    %esi,0x30283d29
  407a26:	2c 34                	sub    $0x34,%al
  407a28:	29 00                	sub    %eax,(%eax)
  407a2a:	75 69                	jne    407a95 <___crt_xc_end__+0x2a95>
  407a2c:	6e                   	outsb  %ds:(%esi),(%dx)
  407a2d:	74 5f                	je     407a8e <___crt_xc_end__+0x2a8e>
  407a2f:	6c                   	insb   (%dx),%es:(%edi)
  407a30:	65                   	gs
  407a31:	61                   	popa   
  407a32:	73 74                	jae    407aa8 <___crt_xc_end__+0x2aa8>
  407a34:	36                   	ss
  407a35:	34 5f                	xor    $0x5f,%al
  407a37:	74 3a                	je     407a73 <___crt_xc_end__+0x2a73>
  407a39:	74 28                	je     407a63 <___crt_xc_end__+0x2a63>
  407a3b:	31 34 2c             	xor    %esi,(%esp,%ebp,1)
  407a3e:	31 36                	xor    %esi,(%esi)
  407a40:	29 3d 28 30 2c 37    	sub    %edi,0x372c3028
  407a46:	29 00                	sub    %eax,(%eax)
  407a48:	69 6e 74 5f 66 61 73 	imul   $0x7361665f,0x74(%esi),%ebp
  407a4f:	74 38                	je     407a89 <___crt_xc_end__+0x2a89>
  407a51:	5f                   	pop    %edi
  407a52:	74 3a                	je     407a8e <___crt_xc_end__+0x2a8e>
  407a54:	74 28                	je     407a7e <___crt_xc_end__+0x2a7e>
  407a56:	31 34 2c             	xor    %esi,(%esp,%ebp,1)
  407a59:	31 37                	xor    %esi,(%edi)
  407a5b:	29 3d 28 30 2c 31    	sub    %edi,0x312c3028
  407a61:	30 29                	xor    %ch,(%ecx)
  407a63:	00 69 6e             	add    %ch,0x6e(%ecx)
  407a66:	74 5f                	je     407ac7 <___crt_xc_end__+0x2ac7>
  407a68:	66 61                	popaw  
  407a6a:	73 74                	jae    407ae0 <___crt_xc_end__+0x2ae0>
  407a6c:	31 36                	xor    %esi,(%esi)
  407a6e:	5f                   	pop    %edi
  407a6f:	74 3a                	je     407aab <___crt_xc_end__+0x2aab>
  407a71:	74 28                	je     407a9b <___crt_xc_end__+0x2a9b>
  407a73:	31 34 2c             	xor    %esi,(%esp,%ebp,1)
  407a76:	31 38                	xor    %edi,(%eax)
  407a78:	29 3d 28 30 2c 31    	sub    %edi,0x312c3028
  407a7e:	29 00                	sub    %eax,(%eax)
  407a80:	69 6e 74 5f 66 61 73 	imul   $0x7361665f,0x74(%esi),%ebp
  407a87:	74 33                	je     407abc <___crt_xc_end__+0x2abc>
  407a89:	32 5f 74             	xor    0x74(%edi),%bl
  407a8c:	3a 74 28 31          	cmp    0x31(%eax,%ebp,1),%dh
  407a90:	34 2c                	xor    $0x2c,%al
  407a92:	31 39                	xor    %edi,(%ecx)
  407a94:	29 3d 28 30 2c 31    	sub    %edi,0x312c3028
  407a9a:	29 00                	sub    %eax,(%eax)
  407a9c:	69 6e 74 5f 66 61 73 	imul   $0x7361665f,0x74(%esi),%ebp
  407aa3:	74 36                	je     407adb <___crt_xc_end__+0x2adb>
  407aa5:	34 5f                	xor    $0x5f,%al
  407aa7:	74 3a                	je     407ae3 <___crt_xc_end__+0x2ae3>
  407aa9:	74 28                	je     407ad3 <___crt_xc_end__+0x2ad3>
  407aab:	31 34 2c             	xor    %esi,(%esp,%ebp,1)
  407aae:	32 30                	xor    (%eax),%dh
  407ab0:	29 3d 28 30 2c 36    	sub    %edi,0x362c3028
  407ab6:	29 00                	sub    %eax,(%eax)
  407ab8:	75 69                	jne    407b23 <___crt_xc_end__+0x2b23>
  407aba:	6e                   	outsb  %ds:(%esi),(%dx)
  407abb:	74 5f                	je     407b1c <___crt_xc_end__+0x2b1c>
  407abd:	66 61                	popaw  
  407abf:	73 74                	jae    407b35 <___crt_xc_end__+0x2b35>
  407ac1:	38 5f 74             	cmp    %bl,0x74(%edi)
  407ac4:	3a 74 28 31          	cmp    0x31(%eax,%ebp,1),%dh
  407ac8:	34 2c                	xor    $0x2c,%al
  407aca:	32 31                	xor    (%ecx),%dh
  407acc:	29 3d 28 30 2c 31    	sub    %edi,0x312c3028
  407ad2:	31 29                	xor    %ebp,(%ecx)
  407ad4:	00 75 69             	add    %dh,0x69(%ebp)
  407ad7:	6e                   	outsb  %ds:(%esi),(%dx)
  407ad8:	74 5f                	je     407b39 <___crt_xc_end__+0x2b39>
  407ada:	66 61                	popaw  
  407adc:	73 74                	jae    407b52 <___crt_xc_end__+0x2b52>
  407ade:	31 36                	xor    %esi,(%esi)
  407ae0:	5f                   	pop    %edi
  407ae1:	74 3a                	je     407b1d <___crt_xc_end__+0x2b1d>
  407ae3:	74 28                	je     407b0d <___crt_xc_end__+0x2b0d>
  407ae5:	31 34 2c             	xor    %esi,(%esp,%ebp,1)
  407ae8:	32 32                	xor    (%edx),%dh
  407aea:	29 3d 28 30 2c 34    	sub    %edi,0x342c3028
  407af0:	29 00                	sub    %eax,(%eax)
  407af2:	75 69                	jne    407b5d <___crt_xc_end__+0x2b5d>
  407af4:	6e                   	outsb  %ds:(%esi),(%dx)
  407af5:	74 5f                	je     407b56 <___crt_xc_end__+0x2b56>
  407af7:	66 61                	popaw  
  407af9:	73 74                	jae    407b6f <___crt_xc_end__+0x2b6f>
  407afb:	33 32                	xor    (%edx),%esi
  407afd:	5f                   	pop    %edi
  407afe:	74 3a                	je     407b3a <___crt_xc_end__+0x2b3a>
  407b00:	74 28                	je     407b2a <___crt_xc_end__+0x2b2a>
  407b02:	31 34 2c             	xor    %esi,(%esp,%ebp,1)
  407b05:	32 33                	xor    (%ebx),%dh
  407b07:	29 3d 28 30 2c 34    	sub    %edi,0x342c3028
  407b0d:	29 00                	sub    %eax,(%eax)
  407b0f:	75 69                	jne    407b7a <___crt_xc_end__+0x2b7a>
  407b11:	6e                   	outsb  %ds:(%esi),(%dx)
  407b12:	74 5f                	je     407b73 <___crt_xc_end__+0x2b73>
  407b14:	66 61                	popaw  
  407b16:	73 74                	jae    407b8c <___crt_xc_end__+0x2b8c>
  407b18:	36                   	ss
  407b19:	34 5f                	xor    $0x5f,%al
  407b1b:	74 3a                	je     407b57 <___crt_xc_end__+0x2b57>
  407b1d:	74 28                	je     407b47 <___crt_xc_end__+0x2b47>
  407b1f:	31 34 2c             	xor    %esi,(%esp,%ebp,1)
  407b22:	32 34 29             	xor    (%ecx,%ebp,1),%dh
  407b25:	3d 28 30 2c 37       	cmp    $0x372c3028,%eax
  407b2a:	29 00                	sub    %eax,(%eax)
  407b2c:	69 6e 74 70 74 72 5f 	imul   $0x5f727470,0x74(%esi),%ebp
  407b33:	74 3a                	je     407b6f <___crt_xc_end__+0x2b6f>
  407b35:	74 28                	je     407b5f <___crt_xc_end__+0x2b5f>
  407b37:	31 34 2c             	xor    %esi,(%esp,%ebp,1)
  407b3a:	32 35 29 3d 28 30    	xor    0x30283d29,%dh
  407b40:	2c 31                	sub    $0x31,%al
  407b42:	29 00                	sub    %eax,(%eax)
  407b44:	75 69                	jne    407baf <___crt_xc_end__+0x2baf>
  407b46:	6e                   	outsb  %ds:(%esi),(%dx)
  407b47:	74 70                	je     407bb9 <___crt_xc_end__+0x2bb9>
  407b49:	74 72                	je     407bbd <___crt_xc_end__+0x2bbd>
  407b4b:	5f                   	pop    %edi
  407b4c:	74 3a                	je     407b88 <___crt_xc_end__+0x2b88>
  407b4e:	74 28                	je     407b78 <___crt_xc_end__+0x2b78>
  407b50:	31 34 2c             	xor    %esi,(%esp,%ebp,1)
  407b53:	32 36                	xor    (%esi),%dh
  407b55:	29 3d 28 30 2c 34    	sub    %edi,0x342c3028
  407b5b:	29 00                	sub    %eax,(%eax)
  407b5d:	69 6e 74 6d 61 78 5f 	imul   $0x5f78616d,0x74(%esi),%ebp
  407b64:	74 3a                	je     407ba0 <___crt_xc_end__+0x2ba0>
  407b66:	74 28                	je     407b90 <___crt_xc_end__+0x2b90>
  407b68:	31 34 2c             	xor    %esi,(%esp,%ebp,1)
  407b6b:	32 37                	xor    (%edi),%dh
  407b6d:	29 3d 28 30 2c 36    	sub    %edi,0x362c3028
  407b73:	29 00                	sub    %eax,(%eax)
  407b75:	75 69                	jne    407be0 <___crt_xc_end__+0x2be0>
  407b77:	6e                   	outsb  %ds:(%esi),(%dx)
  407b78:	74 6d                	je     407be7 <___crt_xc_end__+0x2be7>
  407b7a:	61                   	popa   
  407b7b:	78 5f                	js     407bdc <___crt_xc_end__+0x2bdc>
  407b7d:	74 3a                	je     407bb9 <___crt_xc_end__+0x2bb9>
  407b7f:	74 28                	je     407ba9 <___crt_xc_end__+0x2ba9>
  407b81:	31 34 2c             	xor    %esi,(%esp,%ebp,1)
  407b84:	32 38                	xor    (%eax),%bh
  407b86:	29 3d 28 30 2c 37    	sub    %edi,0x372c3028
  407b8c:	29 00                	sub    %eax,(%eax)
  407b8e:	74 69                	je     407bf9 <___crt_xc_end__+0x2bf9>
  407b90:	6d                   	insl   (%dx),%es:(%edi)
  407b91:	65                   	gs
  407b92:	73 70                	jae    407c04 <___crt_xc_end__+0x2c04>
  407b94:	65 63 5f 74          	arpl   %bx,%gs:0x74(%edi)
  407b98:	3a 74 28 31          	cmp    0x31(%eax,%ebp,1),%dh
  407b9c:	33 2c 31             	xor    (%ecx,%esi,1),%ebp
  407b9f:	29 3d 28 31 30 2c    	sub    %edi,0x2c303128
  407ba5:	31 30                	xor    %esi,(%eax)
  407ba7:	29 00                	sub    %eax,(%eax)
  407ba9:	74 69                	je     407c14 <___crt_xc_end__+0x2c14>
  407bab:	6d                   	insl   (%dx),%es:(%edi)
  407bac:	65                   	gs
  407bad:	73 74                	jae    407c23 <___crt_xc_end__+0x2c23>
  407baf:	72 75                	jb     407c26 <___crt_xc_end__+0x2c26>
  407bb1:	63 5f 74             	arpl   %bx,0x74(%edi)
  407bb4:	3a 74 28 31          	cmp    0x31(%eax,%ebp,1),%dh
  407bb8:	33 2c 32             	xor    (%edx,%esi,1),%ebp
  407bbb:	29 3d 28 31 30 2c    	sub    %edi,0x2c303128
  407bc1:	31 30                	xor    %esi,(%eax)
  407bc3:	29 00                	sub    %eax,(%eax)
  407bc5:	6f                   	outsl  %ds:(%esi),(%dx)
  407bc6:	66 66 5f             	data32 pop %di
  407bc9:	74 3a                	je     407c05 <___crt_xc_end__+0x2c05>
  407bcb:	74 28                	je     407bf5 <___crt_xc_end__+0x2bf5>
  407bcd:	31 33                	xor    %esi,(%ebx)
  407bcf:	2c 33                	sub    $0x33,%al
  407bd1:	29 3d 28 35 2c 35    	sub    %edi,0x352c3528
  407bd7:	29 00                	sub    %eax,(%eax)
  407bd9:	6c                   	insb   (%dx),%es:(%edi)
  407bda:	6f                   	outsl  %ds:(%esi),(%dx)
  407bdb:	66 66 5f             	data32 pop %di
  407bde:	74 3a                	je     407c1a <___crt_xc_end__+0x2c1a>
  407be0:	74 28                	je     407c0a <___crt_xc_end__+0x2c0a>
  407be2:	31 33                	xor    %esi,(%ebx)
  407be4:	2c 34                	sub    $0x34,%al
  407be6:	29 3d 28 31 32 2c    	sub    %edi,0x2c323128
  407bec:	33 29                	xor    (%ecx),%ebp
  407bee:	00 5f 5f             	add    %bl,0x5f(%edi)
  407bf1:	64                   	fs
  407bf2:	65                   	gs
  407bf3:	76 31                	jbe    407c26 <___crt_xc_end__+0x2c26>
  407bf5:	36                   	ss
  407bf6:	5f                   	pop    %edi
  407bf7:	74 3a                	je     407c33 <___crt_xc_end__+0x2c33>
  407bf9:	74 28                	je     407c23 <___crt_xc_end__+0x2c23>
  407bfb:	31 33                	xor    %esi,(%ebx)
  407bfd:	2c 35                	sub    $0x35,%al
  407bff:	29 3d 28 30 2c 38    	sub    %edi,0x382c3028
  407c05:	29 00                	sub    %eax,(%eax)
  407c07:	5f                   	pop    %edi
  407c08:	5f                   	pop    %edi
  407c09:	64                   	fs
  407c0a:	65                   	gs
  407c0b:	76 33                	jbe    407c40 <___crt_xc_end__+0x2c40>
  407c0d:	32 5f 74             	xor    0x74(%edi),%bl
  407c10:	3a 74 28 31          	cmp    0x31(%eax,%ebp,1),%dh
  407c14:	33 2c 36             	xor    (%esi,%esi,1),%ebp
  407c17:	29 3d 28 30 2c 35    	sub    %edi,0x352c3028
  407c1d:	29 00                	sub    %eax,(%eax)
  407c1f:	64                   	fs
  407c20:	65                   	gs
  407c21:	76 5f                	jbe    407c82 <___crt_xc_end__+0x2c82>
  407c23:	74 3a                	je     407c5f <___crt_xc_end__+0x2c5f>
  407c25:	74 28                	je     407c4f <___crt_xc_end__+0x2c4f>
  407c27:	31 33                	xor    %esi,(%ebx)
  407c29:	2c 37                	sub    $0x37,%al
  407c2b:	29 3d 28 31 33 2c    	sub    %edi,0x2c333128
  407c31:	36 29 00             	sub    %eax,%ss:(%eax)
  407c34:	62 6c 6b 73          	bound  %ebp,0x73(%ebx,%ebp,2)
  407c38:	69 7a 65 5f 74 3a 74 	imul   $0x743a745f,0x65(%edx),%edi
  407c3f:	28 31                	sub    %dh,(%ecx)
  407c41:	33 2c 38             	xor    (%eax,%edi,1),%ebp
  407c44:	29 3d 28 30 2c 33    	sub    %edi,0x332c3028
  407c4a:	29 00                	sub    %eax,(%eax)
  407c4c:	5f                   	pop    %edi
  407c4d:	5f                   	pop    %edi
  407c4e:	62 6c 6b 63          	bound  %ebp,0x63(%ebx,%ebp,2)
  407c52:	6e                   	outsb  %ds:(%esi),(%dx)
  407c53:	74 33                	je     407c88 <___crt_xc_end__+0x2c88>
  407c55:	32 5f 74             	xor    0x74(%edi),%bl
  407c58:	3a 74 28 31          	cmp    0x31(%eax,%ebp,1),%dh
  407c5c:	33 2c 39             	xor    (%ecx,%edi,1),%ebp
  407c5f:	29 3d 28 30 2c 33    	sub    %edi,0x332c3028
  407c65:	29 00                	sub    %eax,(%eax)
  407c67:	5f                   	pop    %edi
  407c68:	5f                   	pop    %edi
  407c69:	62 6c 6b 63          	bound  %ebp,0x63(%ebx,%ebp,2)
  407c6d:	6e                   	outsb  %ds:(%esi),(%dx)
  407c6e:	74 36                	je     407ca6 <___crt_xc_end__+0x2ca6>
  407c70:	34 5f                	xor    $0x5f,%al
  407c72:	74 3a                	je     407cae <___crt_xc_end__+0x2cae>
  407c74:	74 28                	je     407c9e <___crt_xc_end__+0x2c9e>
  407c76:	31 33                	xor    %esi,(%ebx)
  407c78:	2c 31                	sub    $0x31,%al
  407c7a:	30 29                	xor    %ch,(%ecx)
  407c7c:	3d 28 30 2c 36       	cmp    $0x362c3028,%eax
  407c81:	29 00                	sub    %eax,(%eax)
  407c83:	62 6c 6b 63          	bound  %ebp,0x63(%ebx,%ebp,2)
  407c87:	6e                   	outsb  %ds:(%esi),(%dx)
  407c88:	74 5f                	je     407ce9 <___crt_xc_end__+0x2ce9>
  407c8a:	74 3a                	je     407cc6 <___crt_xc_end__+0x2cc6>
  407c8c:	74 28                	je     407cb6 <___crt_xc_end__+0x2cb6>
  407c8e:	31 33                	xor    %esi,(%ebx)
  407c90:	2c 31                	sub    $0x31,%al
  407c92:	31 29                	xor    %ebp,(%ecx)
  407c94:	3d 28 31 33 2c       	cmp    $0x2c333128,%eax
  407c99:	31 30                	xor    %esi,(%eax)
  407c9b:	29 00                	sub    %eax,(%eax)
  407c9d:	66                   	data16
  407c9e:	73 62                	jae    407d02 <___crt_xc_end__+0x2d02>
  407ca0:	6c                   	insb   (%dx),%es:(%edi)
  407ca1:	6b 63 6e 74          	imul   $0x74,0x6e(%ebx),%esp
  407ca5:	5f                   	pop    %edi
  407ca6:	74 3a                	je     407ce2 <___crt_xc_end__+0x2ce2>
  407ca8:	74 28                	je     407cd2 <___crt_xc_end__+0x2cd2>
  407caa:	31 33                	xor    %esi,(%ebx)
  407cac:	2c 31                	sub    $0x31,%al
  407cae:	32 29                	xor    (%ecx),%ch
  407cb0:	3d 28 30 2c 35       	cmp    $0x352c3028,%eax
  407cb5:	29 00                	sub    %eax,(%eax)
  407cb7:	66                   	data16
  407cb8:	73 66                	jae    407d20 <___crt_xc_end__+0x2d20>
  407cba:	69 6c 63 6e 74 5f 74 	imul   $0x3a745f74,0x6e(%ebx,%eiz,2),%ebp
  407cc1:	3a 
  407cc2:	74 28                	je     407cec <___crt_xc_end__+0x2cec>
  407cc4:	31 33                	xor    %esi,(%ebx)
  407cc6:	2c 31                	sub    $0x31,%al
  407cc8:	33 29                	xor    (%ecx),%ebp
  407cca:	3d 28 30 2c 35       	cmp    $0x352c3028,%eax
  407ccf:	29 00                	sub    %eax,(%eax)
  407cd1:	5f                   	pop    %edi
  407cd2:	5f                   	pop    %edi
  407cd3:	75 69                	jne    407d3e <___crt_xc_end__+0x2d3e>
  407cd5:	64 31 36             	xor    %esi,%fs:(%esi)
  407cd8:	5f                   	pop    %edi
  407cd9:	74 3a                	je     407d15 <___crt_xc_end__+0x2d15>
  407cdb:	74 28                	je     407d05 <___crt_xc_end__+0x2d05>
  407cdd:	31 33                	xor    %esi,(%ebx)
  407cdf:	2c 31                	sub    $0x31,%al
  407ce1:	34 29                	xor    $0x29,%al
  407ce3:	3d 28 30 2c 39       	cmp    $0x392c3028,%eax
  407ce8:	29 00                	sub    %eax,(%eax)
  407cea:	5f                   	pop    %edi
  407ceb:	5f                   	pop    %edi
  407cec:	75 69                	jne    407d57 <___crt_xc_end__+0x2d57>
  407cee:	64 33 32             	xor    %fs:(%edx),%esi
  407cf1:	5f                   	pop    %edi
  407cf2:	74 3a                	je     407d2e <___crt_xc_end__+0x2d2e>
  407cf4:	74 28                	je     407d1e <___crt_xc_end__+0x2d1e>
  407cf6:	31 33                	xor    %esi,(%ebx)
  407cf8:	2c 31                	sub    $0x31,%al
  407cfa:	35 29 3d 28 30       	xor    $0x30283d29,%eax
  407cff:	2c 35                	sub    $0x35,%al
  407d01:	29 00                	sub    %eax,(%eax)
  407d03:	75 69                	jne    407d6e <___crt_xc_end__+0x2d6e>
  407d05:	64                   	fs
  407d06:	5f                   	pop    %edi
  407d07:	74 3a                	je     407d43 <___crt_xc_end__+0x2d43>
  407d09:	74 28                	je     407d33 <___crt_xc_end__+0x2d33>
  407d0b:	31 33                	xor    %esi,(%ebx)
  407d0d:	2c 31                	sub    $0x31,%al
  407d0f:	36 29 3d 28 31 33 2c 	sub    %edi,%ss:0x2c333128
  407d16:	31 35 29 00 5f 5f    	xor    %esi,0x5f5f0029
  407d1c:	67 69 64 31 36 5f 74 	imul   $0x3a745f36,0x31(%si),%esp
  407d23:	3a 
  407d24:	74 28                	je     407d4e <___crt_xc_end__+0x2d4e>
  407d26:	31 33                	xor    %esi,(%ebx)
  407d28:	2c 31                	sub    $0x31,%al
  407d2a:	37                   	aaa    
  407d2b:	29 3d 28 30 2c 39    	sub    %edi,0x392c3028
  407d31:	29 00                	sub    %eax,(%eax)
  407d33:	5f                   	pop    %edi
  407d34:	5f                   	pop    %edi
  407d35:	67 69 64 33 32 5f 74 	imul   $0x3a745f32,0x33(%si),%esp
  407d3c:	3a 
  407d3d:	74 28                	je     407d67 <___crt_xc_end__+0x2d67>
  407d3f:	31 33                	xor    %esi,(%ebx)
  407d41:	2c 31                	sub    $0x31,%al
  407d43:	38 29                	cmp    %ch,(%ecx)
  407d45:	3d 28 30 2c 35       	cmp    $0x352c3028,%eax
  407d4a:	29 00                	sub    %eax,(%eax)
  407d4c:	67 69 64 5f 74 3a 74 	imul   $0x28743a74,0x5f(%si),%esp
  407d53:	28 
  407d54:	31 33                	xor    %esi,(%ebx)
  407d56:	2c 31                	sub    $0x31,%al
  407d58:	39 29                	cmp    %ebp,(%ecx)
  407d5a:	3d 28 31 33 2c       	cmp    $0x2c333128,%eax
  407d5f:	31 38                	xor    %edi,(%eax)
  407d61:	29 00                	sub    %eax,(%eax)
  407d63:	5f                   	pop    %edi
  407d64:	5f                   	pop    %edi
  407d65:	69 6e 6f 33 32 5f 74 	imul   $0x745f3233,0x6f(%esi),%ebp
  407d6c:	3a 74 28 31          	cmp    0x31(%eax,%ebp,1),%dh
  407d70:	33 2c 32             	xor    (%edx,%esi,1),%ebp
  407d73:	30 29                	xor    %ch,(%ecx)
  407d75:	3d 28 30 2c 35       	cmp    $0x352c3028,%eax
  407d7a:	29 00                	sub    %eax,(%eax)
  407d7c:	5f                   	pop    %edi
  407d7d:	5f                   	pop    %edi
  407d7e:	69 6e 6f 36 34 5f 74 	imul   $0x745f3436,0x6f(%esi),%ebp
  407d85:	3a 74 28 31          	cmp    0x31(%eax,%ebp,1),%dh
  407d89:	33 2c 32             	xor    (%edx,%esi,1),%ebp
  407d8c:	31 29                	xor    %ebp,(%ecx)
  407d8e:	3d 28 30 2c 37       	cmp    $0x372c3028,%eax
  407d93:	29 00                	sub    %eax,(%eax)
  407d95:	69 6e 6f 5f 74 3a 74 	imul   $0x743a745f,0x6f(%esi),%ebp
  407d9c:	28 31                	sub    %dh,(%ecx)
  407d9e:	33 2c 32             	xor    (%edx,%esi,1),%ebp
  407da1:	32 29                	xor    (%ecx),%ch
  407da3:	3d 28 31 33 2c       	cmp    $0x2c333128,%eax
  407da8:	32 31                	xor    (%ecx),%dh
  407daa:	29 00                	sub    %eax,(%eax)
  407dac:	69 64 5f 74 3a 74 28 	imul   $0x3128743a,0x74(%edi,%ebx,2),%esp
  407db3:	31 
  407db4:	33 2c 32             	xor    (%edx,%esi,1),%ebp
  407db7:	33 29                	xor    (%ecx),%ebp
  407db9:	3d 28 30 2c 35       	cmp    $0x352c3028,%eax
  407dbe:	29 00                	sub    %eax,(%eax)
  407dc0:	66                   	data16
  407dc1:	6c                   	insb   (%dx),%es:(%edi)
  407dc2:	6f                   	outsl  %ds:(%esi),(%dx)
  407dc3:	63 6b 3a             	arpl   %bp,0x3a(%ebx)
  407dc6:	54                   	push   %esp
  407dc7:	28 31                	sub    %dh,(%ecx)
  407dc9:	33 2c 32             	xor    (%edx,%esi,1),%ebp
  407dcc:	34 29                	xor    $0x29,%al
  407dce:	3d 73 33 32 6c       	cmp    $0x6c323373,%eax
  407dd3:	5f                   	pop    %edi
  407dd4:	74 79                	je     407e4f <___crt_xc_end__+0x2e4f>
  407dd6:	70 65                	jo     407e3d <___crt_xc_end__+0x2e3d>
  407dd8:	3a 28                	cmp    (%eax),%ch
  407dda:	30 2c 38             	xor    %ch,(%eax,%edi,1)
  407ddd:	29 2c 30             	sub    %ebp,(%eax,%esi,1)
  407de0:	2c 31                	sub    $0x31,%al
  407de2:	36 3b 6c 5f 77       	cmp    %ss:0x77(%edi,%ebx,2),%ebp
  407de7:	68 65 6e 63 65       	push   $0x65636e65
  407dec:	3a 28                	cmp    (%eax),%ch
  407dee:	30 2c 38             	xor    %ch,(%eax,%edi,1)
  407df1:	29 2c 31             	sub    %ebp,(%ecx,%esi,1)
  407df4:	36                   	ss
  407df5:	2c 31                	sub    $0x31,%al
  407df7:	36 3b 6c 5f 73       	cmp    %ss:0x73(%edi,%ebx,2),%ebp
  407dfc:	74 61                	je     407e5f <___crt_xc_end__+0x2e5f>
  407dfe:	72 74                	jb     407e74 <___crt_xc_end__+0x2e74>
  407e00:	3a 28                	cmp    (%eax),%ch
  407e02:	31 33                	xor    %esi,(%ebx)
  407e04:	2c 33                	sub    $0x33,%al
  407e06:	29 2c 36             	sub    %ebp,(%esi,%esi,1)
  407e09:	34 2c                	xor    $0x2c,%al
  407e0b:	36                   	ss
  407e0c:	34 3b                	xor    $0x3b,%al
  407e0e:	6c                   	insb   (%dx),%es:(%edi)
  407e0f:	5f                   	pop    %edi
  407e10:	6c                   	insb   (%dx),%es:(%edi)
  407e11:	65 6e                	outsb  %gs:(%esi),(%dx)
  407e13:	3a 28                	cmp    (%eax),%ch
  407e15:	31 33                	xor    %esi,(%ebx)
  407e17:	2c 33                	sub    $0x33,%al
  407e19:	29 2c 31             	sub    %ebp,(%ecx,%esi,1)
  407e1c:	32 38                	xor    (%eax),%bh
  407e1e:	2c 36                	sub    $0x36,%al
  407e20:	34 3b                	xor    $0x3b,%al
  407e22:	6c                   	insb   (%dx),%es:(%edi)
  407e23:	5f                   	pop    %edi
  407e24:	70 69                	jo     407e8f <___crt_xc_end__+0x2e8f>
  407e26:	64 3a 28             	cmp    %fs:(%eax),%ch
  407e29:	31 30                	xor    %esi,(%eax)
  407e2b:	2c 31                	sub    $0x31,%al
  407e2d:	34 29                	xor    $0x29,%al
  407e2f:	2c 31                	sub    $0x31,%al
  407e31:	39 32                	cmp    %esi,(%edx)
  407e33:	2c 33                	sub    $0x33,%al
  407e35:	32 3b                	xor    (%ebx),%bh
  407e37:	3b 00                	cmp    (%eax),%eax
  407e39:	6b 65 79 5f          	imul   $0x5f,0x79(%ebp),%esp
  407e3d:	74 3a                	je     407e79 <___crt_xc_end__+0x2e79>
  407e3f:	74 28                	je     407e69 <___crt_xc_end__+0x2e69>
  407e41:	31 33                	xor    %esi,(%ebx)
  407e43:	2c 32                	sub    $0x32,%al
  407e45:	35 29 3d 28 30       	xor    $0x30283d29,%eax
  407e4a:	2c 36                	sub    $0x36,%al
  407e4c:	29 00                	sub    %eax,(%eax)
  407e4e:	76 6d                	jbe    407ebd <___crt_xc_end__+0x2ebd>
  407e50:	5f                   	pop    %edi
  407e51:	6f                   	outsl  %ds:(%esi),(%dx)
  407e52:	66                   	data16
  407e53:	66                   	data16
  407e54:	73 65                	jae    407ebb <___crt_xc_end__+0x2ebb>
  407e56:	74 5f                	je     407eb7 <___crt_xc_end__+0x2eb7>
  407e58:	74 3a                	je     407e94 <___crt_xc_end__+0x2e94>
  407e5a:	74 28                	je     407e84 <___crt_xc_end__+0x2e84>
  407e5c:	31 33                	xor    %esi,(%ebx)
  407e5e:	2c 32                	sub    $0x32,%al
  407e60:	36 29 3d 28 30 2c 35 	sub    %edi,%ss:0x352c3028
  407e67:	29 00                	sub    %eax,(%eax)
  407e69:	76 6d                	jbe    407ed8 <___crt_xc_end__+0x2ed8>
  407e6b:	5f                   	pop    %edi
  407e6c:	73 69                	jae    407ed7 <___crt_xc_end__+0x2ed7>
  407e6e:	7a 65                	jp     407ed5 <___crt_xc_end__+0x2ed5>
  407e70:	5f                   	pop    %edi
  407e71:	74 3a                	je     407ead <___crt_xc_end__+0x2ead>
  407e73:	74 28                	je     407e9d <___crt_xc_end__+0x2e9d>
  407e75:	31 33                	xor    %esi,(%ebx)
  407e77:	2c 32                	sub    $0x32,%al
  407e79:	37                   	aaa    
  407e7a:	29 3d 28 30 2c 35    	sub    %edi,0x352c3028
  407e80:	29 00                	sub    %eax,(%eax)
  407e82:	76 6d                	jbe    407ef1 <___crt_xc_end__+0x2ef1>
  407e84:	5f                   	pop    %edi
  407e85:	6f                   	outsl  %ds:(%esi),(%dx)
  407e86:	62 6a 65             	bound  %ebp,0x65(%edx)
  407e89:	63 74 5f 74          	arpl   %si,0x74(%edi,%ebx,2)
  407e8d:	3a 74 28 31          	cmp    0x31(%eax,%ebp,1),%dh
  407e91:	33 2c 32             	xor    (%edx,%esi,1),%ebp
  407e94:	38 29                	cmp    %ch,(%ecx)
  407e96:	3d 28 38 2c 32       	cmp    $0x322c3828,%eax
  407e9b:	29 00                	sub    %eax,(%eax)
  407e9d:	75 5f                	jne    407efe <___crt_xc_end__+0x2efe>
  407e9f:	69 6e 74 38 5f 74 3a 	imul   $0x3a745f38,0x74(%esi),%ebp
  407ea6:	74 28                	je     407ed0 <___crt_xc_end__+0x2ed0>
  407ea8:	31 33                	xor    %esi,(%ebx)
  407eaa:	2c 32                	sub    $0x32,%al
  407eac:	39 29                	cmp    %ebp,(%ecx)
  407eae:	3d 28 30 2c 31       	cmp    $0x312c3028,%eax
  407eb3:	31 29                	xor    %ebp,(%ecx)
  407eb5:	00 75 5f             	add    %dh,0x5f(%ebp)
  407eb8:	69 6e 74 31 36 5f 74 	imul   $0x745f3631,0x74(%esi),%ebp
  407ebf:	3a 74 28 31          	cmp    0x31(%eax,%ebp,1),%dh
  407ec3:	33 2c 33             	xor    (%ebx,%esi,1),%ebp
  407ec6:	30 29                	xor    %ch,(%ecx)
  407ec8:	3d 28 37 2c 34       	cmp    $0x342c3728,%eax
  407ecd:	29 00                	sub    %eax,(%eax)
  407ecf:	75 5f                	jne    407f30 <___crt_xc_end__+0x2f30>
  407ed1:	69 6e 74 33 32 5f 74 	imul   $0x745f3233,0x74(%esi),%ebp
  407ed8:	3a 74 28 31          	cmp    0x31(%eax,%ebp,1),%dh
  407edc:	33 2c 33             	xor    (%ebx,%esi,1),%ebp
  407edf:	31 29                	xor    %ebp,(%ecx)
  407ee1:	3d 28 37 2c 38       	cmp    $0x382c3728,%eax
  407ee6:	29 00                	sub    %eax,(%eax)
  407ee8:	75 5f                	jne    407f49 <___crt_xc_end__+0x2f49>
  407eea:	69 6e 74 36 34 5f 74 	imul   $0x745f3436,0x74(%esi),%ebp
  407ef1:	3a 74 28 31          	cmp    0x31(%eax,%ebp,1),%dh
  407ef5:	33 2c 33             	xor    (%ebx,%esi,1),%ebp
  407ef8:	32 29                	xor    (%ecx),%ch
  407efa:	3d 28 37 2c 31       	cmp    $0x312c3728,%eax
  407eff:	32 29                	xor    (%ecx),%ch
  407f01:	00 72 65             	add    %dh,0x65(%edx)
  407f04:	67 69 73 74 65 72 5f 	imul   $0x745f7265,0x74(%bp,%di),%esi
  407f0b:	74 
  407f0c:	3a 74 28 31          	cmp    0x31(%eax,%ebp,1),%dh
  407f10:	33 2c 33             	xor    (%ebx,%esi,1),%ebp
  407f13:	33 29                	xor    (%ecx),%ebp
  407f15:	3d 28 37 2c 37       	cmp    $0x372c3728,%eax
  407f1a:	29 00                	sub    %eax,(%eax)
  407f1c:	61                   	popa   
  407f1d:	64                   	fs
  407f1e:	64                   	fs
  407f1f:	72 5f                	jb     407f80 <___crt_xc_end__+0x2f80>
  407f21:	74 3a                	je     407f5d <___crt_xc_end__+0x2f5d>
  407f23:	74 28                	je     407f4d <___crt_xc_end__+0x2f4d>
  407f25:	31 33                	xor    %esi,(%ebx)
  407f27:	2c 33                	sub    $0x33,%al
  407f29:	34 29                	xor    $0x29,%al
  407f2b:	3d 28 34 2c 34       	cmp    $0x342c3428,%eax
  407f30:	33 29                	xor    (%ecx),%ebp
  407f32:	00 6d 6f             	add    %ch,0x6f(%ebp)
  407f35:	64                   	fs
  407f36:	65                   	gs
  407f37:	5f                   	pop    %edi
  407f38:	74 3a                	je     407f74 <___crt_xc_end__+0x2f74>
  407f3a:	74 28                	je     407f64 <___crt_xc_end__+0x2f64>
  407f3c:	31 33                	xor    %esi,(%ebx)
  407f3e:	2c 33                	sub    $0x33,%al
  407f40:	35 29 3d 28 30       	xor    $0x30283d29,%eax
  407f45:	2c 34                	sub    $0x34,%al
  407f47:	29 00                	sub    %eax,(%eax)
  407f49:	5f                   	pop    %edi
  407f4a:	5f                   	pop    %edi
  407f4b:	70 74                	jo     407fc1 <___crt_xc_end__+0x2fc1>
  407f4d:	68 72 65 61 64       	push   $0x64616572
  407f52:	5f                   	pop    %edi
  407f53:	74 3a                	je     407f8f <___crt_xc_end__+0x2f8f>
  407f55:	54                   	push   %esp
  407f56:	28 31                	sub    %dh,(%ecx)
  407f58:	33 2c 33             	xor    (%ebx,%esi,1),%ebp
  407f5b:	36 29 3d 73 31 5f 5f 	sub    %edi,%ss:0x5f5f3173
  407f62:	64                   	fs
  407f63:	75 6d                	jne    407fd2 <___crt_xc_end__+0x2fd2>
  407f65:	6d                   	insl   (%dx),%es:(%edi)
  407f66:	79 3a                	jns    407fa2 <___crt_xc_end__+0x2fa2>
  407f68:	28 30                	sub    %dh,(%eax)
  407f6a:	2c 32                	sub    $0x32,%al
  407f6c:	29 2c 30             	sub    %ebp,(%eax,%esi,1)
  407f6f:	2c 38                	sub    $0x38,%al
  407f71:	3b 3b                	cmp    (%ebx),%edi
  407f73:	00 70 74             	add    %dh,0x74(%eax)
  407f76:	68 72 65 61 64       	push   $0x64616572
  407f7b:	5f                   	pop    %edi
  407f7c:	74 3a                	je     407fb8 <___crt_xc_end__+0x2fb8>
  407f7e:	74 28                	je     407fa8 <___crt_xc_end__+0x2fa8>
  407f80:	31 33                	xor    %esi,(%ebx)
  407f82:	2c 33                	sub    $0x33,%al
  407f84:	37                   	aaa    
  407f85:	29 3d 28 31 33 2c    	sub    %edi,0x2c333128
  407f8b:	33 38                	xor    (%eax),%edi
  407f8d:	29 3d 2a 28 31 33    	sub    %edi,0x3331282a
  407f93:	2c 33                	sub    $0x33,%al
  407f95:	36 29 00             	sub    %eax,%ss:(%eax)
  407f98:	5f                   	pop    %edi
  407f99:	5f                   	pop    %edi
  407f9a:	70 74                	jo     408010 <___crt_xc_end__+0x3010>
  407f9c:	68 72 65 61 64       	push   $0x64616572
  407fa1:	5f                   	pop    %edi
  407fa2:	6d                   	insl   (%dx),%es:(%edi)
  407fa3:	75 74                	jne    408019 <___crt_xc_end__+0x3019>
  407fa5:	65                   	gs
  407fa6:	78 5f                	js     408007 <___crt_xc_end__+0x3007>
  407fa8:	74 3a                	je     407fe4 <___crt_xc_end__+0x2fe4>
  407faa:	54                   	push   %esp
  407fab:	28 31                	sub    %dh,(%ecx)
  407fad:	33 2c 33             	xor    (%ebx,%esi,1),%ebp
  407fb0:	39 29                	cmp    %ebp,(%ecx)
  407fb2:	3d 73 31 5f 5f       	cmp    $0x5f5f3173,%eax
  407fb7:	64                   	fs
  407fb8:	75 6d                	jne    408027 <___crt_xc_end__+0x3027>
  407fba:	6d                   	insl   (%dx),%es:(%edi)
  407fbb:	79 3a                	jns    407ff7 <___crt_xc_end__+0x2ff7>
  407fbd:	28 30                	sub    %dh,(%eax)
  407fbf:	2c 32                	sub    $0x32,%al
  407fc1:	29 2c 30             	sub    %ebp,(%eax,%esi,1)
  407fc4:	2c 38                	sub    $0x38,%al
  407fc6:	3b 3b                	cmp    (%ebx),%edi
  407fc8:	00 70 74             	add    %dh,0x74(%eax)
  407fcb:	68 72 65 61 64       	push   $0x64616572
  407fd0:	5f                   	pop    %edi
  407fd1:	6d                   	insl   (%dx),%es:(%edi)
  407fd2:	75 74                	jne    408048 <___crt_xc_end__+0x3048>
  407fd4:	65                   	gs
  407fd5:	78 5f                	js     408036 <___crt_xc_end__+0x3036>
  407fd7:	74 3a                	je     408013 <___crt_xc_end__+0x3013>
  407fd9:	74 28                	je     408003 <___crt_xc_end__+0x3003>
  407fdb:	31 33                	xor    %esi,(%ebx)
  407fdd:	2c 34                	sub    $0x34,%al
  407fdf:	30 29                	xor    %ch,(%ecx)
  407fe1:	3d 28 31 33 2c       	cmp    $0x2c333128,%eax
  407fe6:	34 31                	xor    $0x31,%al
  407fe8:	29 3d 2a 28 31 33    	sub    %edi,0x3331282a
  407fee:	2c 33                	sub    $0x33,%al
  407ff0:	39 29                	cmp    %ebp,(%ecx)
  407ff2:	00 5f 5f             	add    %bl,0x5f(%edi)
  407ff5:	70 74                	jo     40806b <___crt_xc_end__+0x306b>
  407ff7:	68 72 65 61 64       	push   $0x64616572
  407ffc:	5f                   	pop    %edi
  407ffd:	6b 65 79 5f          	imul   $0x5f,0x79(%ebp),%esp
  408001:	74 3a                	je     40803d <___crt_xc_end__+0x303d>
  408003:	54                   	push   %esp
  408004:	28 31                	sub    %dh,(%ecx)
  408006:	33 2c 34             	xor    (%esp,%esi,1),%ebp
  408009:	32 29                	xor    (%ecx),%ch
  40800b:	3d 73 31 5f 5f       	cmp    $0x5f5f3173,%eax
  408010:	64                   	fs
  408011:	75 6d                	jne    408080 <___crt_xc_end__+0x3080>
  408013:	6d                   	insl   (%dx),%es:(%edi)
  408014:	79 3a                	jns    408050 <___crt_xc_end__+0x3050>
  408016:	28 30                	sub    %dh,(%eax)
  408018:	2c 32                	sub    $0x32,%al
  40801a:	29 2c 30             	sub    %ebp,(%eax,%esi,1)
  40801d:	2c 38                	sub    $0x38,%al
  40801f:	3b 3b                	cmp    (%ebx),%edi
  408021:	00 70 74             	add    %dh,0x74(%eax)
  408024:	68 72 65 61 64       	push   $0x64616572
  408029:	5f                   	pop    %edi
  40802a:	6b 65 79 5f          	imul   $0x5f,0x79(%ebp),%esp
  40802e:	74 3a                	je     40806a <___crt_xc_end__+0x306a>
  408030:	74 28                	je     40805a <___crt_xc_end__+0x305a>
  408032:	31 33                	xor    %esi,(%ebx)
  408034:	2c 34                	sub    $0x34,%al
  408036:	33 29                	xor    (%ecx),%ebp
  408038:	3d 28 31 33 2c       	cmp    $0x2c333128,%eax
  40803d:	34 34                	xor    $0x34,%al
  40803f:	29 3d 2a 28 31 33    	sub    %edi,0x3331282a
  408045:	2c 34                	sub    $0x34,%al
  408047:	32 29                	xor    (%ecx),%ch
  408049:	00 5f 5f             	add    %bl,0x5f(%edi)
  40804c:	70 74                	jo     4080c2 <___crt_xc_end__+0x30c2>
  40804e:	68 72 65 61 64       	push   $0x64616572
  408053:	5f                   	pop    %edi
  408054:	61                   	popa   
  408055:	74 74                	je     4080cb <___crt_xc_end__+0x30cb>
  408057:	72 5f                	jb     4080b8 <___crt_xc_end__+0x30b8>
  408059:	74 3a                	je     408095 <___crt_xc_end__+0x3095>
  40805b:	54                   	push   %esp
  40805c:	28 31                	sub    %dh,(%ecx)
  40805e:	33 2c 34             	xor    (%esp,%esi,1),%ebp
  408061:	35 29 3d 73 31       	xor    $0x31733d29,%eax
  408066:	5f                   	pop    %edi
  408067:	5f                   	pop    %edi
  408068:	64                   	fs
  408069:	75 6d                	jne    4080d8 <___crt_xc_end__+0x30d8>
  40806b:	6d                   	insl   (%dx),%es:(%edi)
  40806c:	79 3a                	jns    4080a8 <___crt_xc_end__+0x30a8>
  40806e:	28 30                	sub    %dh,(%eax)
  408070:	2c 32                	sub    $0x32,%al
  408072:	29 2c 30             	sub    %ebp,(%eax,%esi,1)
  408075:	2c 38                	sub    $0x38,%al
  408077:	3b 3b                	cmp    (%ebx),%edi
  408079:	00 70 74             	add    %dh,0x74(%eax)
  40807c:	68 72 65 61 64       	push   $0x64616572
  408081:	5f                   	pop    %edi
  408082:	61                   	popa   
  408083:	74 74                	je     4080f9 <___crt_xc_end__+0x30f9>
  408085:	72 5f                	jb     4080e6 <___crt_xc_end__+0x30e6>
  408087:	74 3a                	je     4080c3 <___crt_xc_end__+0x30c3>
  408089:	74 28                	je     4080b3 <___crt_xc_end__+0x30b3>
  40808b:	31 33                	xor    %esi,(%ebx)
  40808d:	2c 34                	sub    $0x34,%al
  40808f:	36 29 3d 28 31 33 2c 	sub    %edi,%ss:0x2c333128
  408096:	34 37                	xor    $0x37,%al
  408098:	29 3d 2a 28 31 33    	sub    %edi,0x3331282a
  40809e:	2c 34                	sub    $0x34,%al
  4080a0:	35 29 00 5f 5f       	xor    $0x5f5f0029,%eax
  4080a5:	70 74                	jo     40811b <___crt_xc_end__+0x311b>
  4080a7:	68 72 65 61 64       	push   $0x64616572
  4080ac:	5f                   	pop    %edi
  4080ad:	6d                   	insl   (%dx),%es:(%edi)
  4080ae:	75 74                	jne    408124 <___crt_xc_end__+0x3124>
  4080b0:	65                   	gs
  4080b1:	78 61                	js     408114 <___crt_xc_end__+0x3114>
  4080b3:	74 74                	je     408129 <___crt_xc_end__+0x3129>
  4080b5:	72 5f                	jb     408116 <___crt_xc_end__+0x3116>
  4080b7:	74 3a                	je     4080f3 <___crt_xc_end__+0x30f3>
  4080b9:	54                   	push   %esp
  4080ba:	28 31                	sub    %dh,(%ecx)
  4080bc:	33 2c 34             	xor    (%esp,%esi,1),%ebp
  4080bf:	38 29                	cmp    %ch,(%ecx)
  4080c1:	3d 73 31 5f 5f       	cmp    $0x5f5f3173,%eax
  4080c6:	64                   	fs
  4080c7:	75 6d                	jne    408136 <___crt_xc_end__+0x3136>
  4080c9:	6d                   	insl   (%dx),%es:(%edi)
  4080ca:	79 3a                	jns    408106 <___crt_xc_end__+0x3106>
  4080cc:	28 30                	sub    %dh,(%eax)
  4080ce:	2c 32                	sub    $0x32,%al
  4080d0:	29 2c 30             	sub    %ebp,(%eax,%esi,1)
  4080d3:	2c 38                	sub    $0x38,%al
  4080d5:	3b 3b                	cmp    (%ebx),%edi
  4080d7:	00 70 74             	add    %dh,0x74(%eax)
  4080da:	68 72 65 61 64       	push   $0x64616572
  4080df:	5f                   	pop    %edi
  4080e0:	6d                   	insl   (%dx),%es:(%edi)
  4080e1:	75 74                	jne    408157 <___crt_xc_end__+0x3157>
  4080e3:	65                   	gs
  4080e4:	78 61                	js     408147 <___crt_xc_end__+0x3147>
  4080e6:	74 74                	je     40815c <___crt_xc_end__+0x315c>
  4080e8:	72 5f                	jb     408149 <___crt_xc_end__+0x3149>
  4080ea:	74 3a                	je     408126 <___crt_xc_end__+0x3126>
  4080ec:	74 28                	je     408116 <___crt_xc_end__+0x3116>
  4080ee:	31 33                	xor    %esi,(%ebx)
  4080f0:	2c 34                	sub    $0x34,%al
  4080f2:	39 29                	cmp    %ebp,(%ecx)
  4080f4:	3d 28 31 33 2c       	cmp    $0x2c333128,%eax
  4080f9:	35 30 29 3d 2a       	xor    $0x2a3d2930,%eax
  4080fe:	28 31                	sub    %dh,(%ecx)
  408100:	33 2c 34             	xor    (%esp,%esi,1),%ebp
  408103:	38 29                	cmp    %ch,(%ecx)
  408105:	00 5f 5f             	add    %bl,0x5f(%edi)
  408108:	70 74                	jo     40817e <___crt_xc_end__+0x317e>
  40810a:	68 72 65 61 64       	push   $0x64616572
  40810f:	5f                   	pop    %edi
  408110:	63 6f 6e             	arpl   %bp,0x6e(%edi)
  408113:	64                   	fs
  408114:	61                   	popa   
  408115:	74 74                	je     40818b <___crt_xc_end__+0x318b>
  408117:	72 5f                	jb     408178 <___crt_xc_end__+0x3178>
  408119:	74 3a                	je     408155 <___crt_xc_end__+0x3155>
  40811b:	54                   	push   %esp
  40811c:	28 31                	sub    %dh,(%ecx)
  40811e:	33 2c 35 31 29 3d 73 	xor    0x733d2931(,%esi,1),%ebp
  408125:	31 5f 5f             	xor    %ebx,0x5f(%edi)
  408128:	64                   	fs
  408129:	75 6d                	jne    408198 <___crt_xc_end__+0x3198>
  40812b:	6d                   	insl   (%dx),%es:(%edi)
  40812c:	79 3a                	jns    408168 <___crt_xc_end__+0x3168>
  40812e:	28 30                	sub    %dh,(%eax)
  408130:	2c 32                	sub    $0x32,%al
  408132:	29 2c 30             	sub    %ebp,(%eax,%esi,1)
  408135:	2c 38                	sub    $0x38,%al
  408137:	3b 3b                	cmp    (%ebx),%edi
  408139:	00 70 74             	add    %dh,0x74(%eax)
  40813c:	68 72 65 61 64       	push   $0x64616572
  408141:	5f                   	pop    %edi
  408142:	63 6f 6e             	arpl   %bp,0x6e(%edi)
  408145:	64                   	fs
  408146:	61                   	popa   
  408147:	74 74                	je     4081bd <___crt_xc_end__+0x31bd>
  408149:	72 5f                	jb     4081aa <___crt_xc_end__+0x31aa>
  40814b:	74 3a                	je     408187 <___crt_xc_end__+0x3187>
  40814d:	74 28                	je     408177 <___crt_xc_end__+0x3177>
  40814f:	31 33                	xor    %esi,(%ebx)
  408151:	2c 35                	sub    $0x35,%al
  408153:	32 29                	xor    (%ecx),%ch
  408155:	3d 28 31 33 2c       	cmp    $0x2c333128,%eax
  40815a:	35 33 29 3d 2a       	xor    $0x2a3d2933,%eax
  40815f:	28 31                	sub    %dh,(%ecx)
  408161:	33 2c 35 31 29 00 5f 	xor    0x5f002931(,%esi,1),%ebp
  408168:	5f                   	pop    %edi
  408169:	70 74                	jo     4081df <___crt_xc_end__+0x31df>
  40816b:	68 72 65 61 64       	push   $0x64616572
  408170:	5f                   	pop    %edi
  408171:	63 6f 6e             	arpl   %bp,0x6e(%edi)
  408174:	64                   	fs
  408175:	5f                   	pop    %edi
  408176:	74 3a                	je     4081b2 <___crt_xc_end__+0x31b2>
  408178:	54                   	push   %esp
  408179:	28 31                	sub    %dh,(%ecx)
  40817b:	33 2c 35 34 29 3d 73 	xor    0x733d2934(,%esi,1),%ebp
  408182:	31 5f 5f             	xor    %ebx,0x5f(%edi)
  408185:	64                   	fs
  408186:	75 6d                	jne    4081f5 <___crt_xc_end__+0x31f5>
  408188:	6d                   	insl   (%dx),%es:(%edi)
  408189:	79 3a                	jns    4081c5 <___crt_xc_end__+0x31c5>
  40818b:	28 30                	sub    %dh,(%eax)
  40818d:	2c 32                	sub    $0x32,%al
  40818f:	29 2c 30             	sub    %ebp,(%eax,%esi,1)
  408192:	2c 38                	sub    $0x38,%al
  408194:	3b 3b                	cmp    (%ebx),%edi
  408196:	00 70 74             	add    %dh,0x74(%eax)
  408199:	68 72 65 61 64       	push   $0x64616572
  40819e:	5f                   	pop    %edi
  40819f:	63 6f 6e             	arpl   %bp,0x6e(%edi)
  4081a2:	64                   	fs
  4081a3:	5f                   	pop    %edi
  4081a4:	74 3a                	je     4081e0 <___crt_xc_end__+0x31e0>
  4081a6:	74 28                	je     4081d0 <___crt_xc_end__+0x31d0>
  4081a8:	31 33                	xor    %esi,(%ebx)
  4081aa:	2c 35                	sub    $0x35,%al
  4081ac:	35 29 3d 28 31       	xor    $0x31283d29,%eax
  4081b1:	33 2c 35 36 29 3d 2a 	xor    0x2a3d2936(,%esi,1),%ebp
  4081b8:	28 31                	sub    %dh,(%ecx)
  4081ba:	33 2c 35 34 29 00 70 	xor    0x70002934(,%esi,1),%ebp
  4081c1:	74 68                	je     40822b <___crt_xc_end__+0x322b>
  4081c3:	72 65                	jb     40822a <___crt_xc_end__+0x322a>
  4081c5:	61                   	popa   
  4081c6:	64                   	fs
  4081c7:	5f                   	pop    %edi
  4081c8:	6f                   	outsl  %ds:(%esi),(%dx)
  4081c9:	6e                   	outsb  %ds:(%esi),(%dx)
  4081ca:	63 65 5f             	arpl   %sp,0x5f(%ebp)
  4081cd:	74 3a                	je     408209 <___crt_xc_end__+0x3209>
  4081cf:	74 28                	je     4081f9 <___crt_xc_end__+0x31f9>
  4081d1:	31 33                	xor    %esi,(%ebx)
  4081d3:	2c 35                	sub    $0x35,%al
  4081d5:	37                   	aaa    
  4081d6:	29 3d 28 31 33 2c    	sub    %edi,0x2c333128
  4081dc:	35 38 29 3d 73       	xor    $0x733d2938,%eax
  4081e1:	38 6d 75             	cmp    %ch,0x75(%ebp)
  4081e4:	74 65                	je     40824b <___crt_xc_end__+0x324b>
  4081e6:	78 3a                	js     408222 <___crt_xc_end__+0x3222>
  4081e8:	28 31                	sub    %dh,(%ecx)
  4081ea:	33 2c 34             	xor    (%esp,%esi,1),%ebp
  4081ed:	30 29                	xor    %ch,(%ecx)
  4081ef:	2c 30                	sub    $0x30,%al
  4081f1:	2c 33                	sub    $0x33,%al
  4081f3:	32 3b                	xor    (%ebx),%bh
  4081f5:	73 74                	jae    40826b <___crt_xc_end__+0x326b>
  4081f7:	61                   	popa   
  4081f8:	74 65                	je     40825f <___crt_xc_end__+0x325f>
  4081fa:	3a 28                	cmp    (%eax),%ch
  4081fc:	30 2c 31             	xor    %ch,(%ecx,%esi,1)
  4081ff:	29 2c 33             	sub    %ebp,(%ebx,%esi,1)
  408202:	32 2c 33             	xor    (%ebx,%esi,1),%ch
  408205:	32 3b                	xor    (%ebx),%bh
  408207:	3b 00                	cmp    (%eax),%eax
  408209:	5f                   	pop    %edi
  40820a:	5f                   	pop    %edi
  40820b:	70 74                	jo     408281 <___crt_xc_end__+0x3281>
  40820d:	68 72 65 61 64       	push   $0x64616572
  408212:	5f                   	pop    %edi
  408213:	72 77                	jb     40828c <___crt_xc_end__+0x328c>
  408215:	6c                   	insb   (%dx),%es:(%edi)
  408216:	6f                   	outsl  %ds:(%esi),(%dx)
  408217:	63 6b 5f             	arpl   %bp,0x5f(%ebx)
  40821a:	74 3a                	je     408256 <___crt_xc_end__+0x3256>
  40821c:	54                   	push   %esp
  40821d:	28 31                	sub    %dh,(%ecx)
  40821f:	33 2c 35 39 29 3d 73 	xor    0x733d2939(,%esi,1),%ebp
  408226:	31 5f 5f             	xor    %ebx,0x5f(%edi)
  408229:	64                   	fs
  40822a:	75 6d                	jne    408299 <___crt_xc_end__+0x3299>
  40822c:	6d                   	insl   (%dx),%es:(%edi)
  40822d:	79 3a                	jns    408269 <___crt_xc_end__+0x3269>
  40822f:	28 30                	sub    %dh,(%eax)
  408231:	2c 32                	sub    $0x32,%al
  408233:	29 2c 30             	sub    %ebp,(%eax,%esi,1)
  408236:	2c 38                	sub    $0x38,%al
  408238:	3b 3b                	cmp    (%ebx),%edi
  40823a:	00 70 74             	add    %dh,0x74(%eax)
  40823d:	68 72 65 61 64       	push   $0x64616572
  408242:	5f                   	pop    %edi
  408243:	72 77                	jb     4082bc <___crt_xc_end__+0x32bc>
  408245:	6c                   	insb   (%dx),%es:(%edi)
  408246:	6f                   	outsl  %ds:(%esi),(%dx)
  408247:	63 6b 5f             	arpl   %bp,0x5f(%ebx)
  40824a:	74 3a                	je     408286 <___crt_xc_end__+0x3286>
  40824c:	74 28                	je     408276 <___crt_xc_end__+0x3276>
  40824e:	31 33                	xor    %esi,(%ebx)
  408250:	2c 36                	sub    $0x36,%al
  408252:	30 29                	xor    %ch,(%ecx)
  408254:	3d 28 31 33 2c       	cmp    $0x2c333128,%eax
  408259:	36 31 29             	xor    %ebp,%ss:(%ecx)
  40825c:	3d 2a 28 31 33       	cmp    $0x3331282a,%eax
  408261:	2c 35                	sub    $0x35,%al
  408263:	39 29                	cmp    %ebp,(%ecx)
  408265:	00 5f 5f             	add    %bl,0x5f(%edi)
  408268:	70 74                	jo     4082de <___crt_xc_end__+0x32de>
  40826a:	68 72 65 61 64       	push   $0x64616572
  40826f:	5f                   	pop    %edi
  408270:	72 77                	jb     4082e9 <___crt_xc_end__+0x32e9>
  408272:	6c                   	insb   (%dx),%es:(%edi)
  408273:	6f                   	outsl  %ds:(%esi),(%dx)
  408274:	63 6b 61             	arpl   %bp,0x61(%ebx)
  408277:	74 74                	je     4082ed <___crt_xc_end__+0x32ed>
  408279:	72 5f                	jb     4082da <___crt_xc_end__+0x32da>
  40827b:	74 3a                	je     4082b7 <___crt_xc_end__+0x32b7>
  40827d:	54                   	push   %esp
  40827e:	28 31                	sub    %dh,(%ecx)
  408280:	33 2c 36             	xor    (%esi,%esi,1),%ebp
  408283:	32 29                	xor    (%ecx),%ch
  408285:	3d 73 31 5f 5f       	cmp    $0x5f5f3173,%eax
  40828a:	64                   	fs
  40828b:	75 6d                	jne    4082fa <___crt_xc_end__+0x32fa>
  40828d:	6d                   	insl   (%dx),%es:(%edi)
  40828e:	79 3a                	jns    4082ca <___crt_xc_end__+0x32ca>
  408290:	28 30                	sub    %dh,(%eax)
  408292:	2c 32                	sub    $0x32,%al
  408294:	29 2c 30             	sub    %ebp,(%eax,%esi,1)
  408297:	2c 38                	sub    $0x38,%al
  408299:	3b 3b                	cmp    (%ebx),%edi
  40829b:	00 70 74             	add    %dh,0x74(%eax)
  40829e:	68 72 65 61 64       	push   $0x64616572
  4082a3:	5f                   	pop    %edi
  4082a4:	72 77                	jb     40831d <___crt_xc_end__+0x331d>
  4082a6:	6c                   	insb   (%dx),%es:(%edi)
  4082a7:	6f                   	outsl  %ds:(%esi),(%dx)
  4082a8:	63 6b 61             	arpl   %bp,0x61(%ebx)
  4082ab:	74 74                	je     408321 <___crt_xc_end__+0x3321>
  4082ad:	72 5f                	jb     40830e <___crt_xc_end__+0x330e>
  4082af:	74 3a                	je     4082eb <___crt_xc_end__+0x32eb>
  4082b1:	74 28                	je     4082db <___crt_xc_end__+0x32db>
  4082b3:	31 33                	xor    %esi,(%ebx)
  4082b5:	2c 36                	sub    $0x36,%al
  4082b7:	33 29                	xor    (%ecx),%ebp
  4082b9:	3d 28 31 33 2c       	cmp    $0x2c333128,%eax
  4082be:	36                   	ss
  4082bf:	34 29                	xor    $0x29,%al
  4082c1:	3d 2a 28 31 33       	cmp    $0x3331282a,%eax
  4082c6:	2c 36                	sub    $0x36,%al
  4082c8:	32 29                	xor    (%ecx),%ch
  4082ca:	00 46 49             	add    %al,0x49(%esi)
  4082cd:	4c                   	dec    %esp
  4082ce:	45                   	inc    %ebp
  4082cf:	3a 74 28 31          	cmp    0x31(%eax,%ebp,1),%dh
  4082d3:	2c 31                	sub    $0x31,%al
  4082d5:	29 3d 28 34 2c 33    	sub    %edi,0x332c3428
  4082db:	31 29                	xor    %ebp,(%ecx)
  4082dd:	00 66 70             	add    %ah,0x70(%esi)
  4082e0:	6f                   	outsl  %ds:(%esi),(%dx)
  4082e1:	73 5f                	jae    408342 <___crt_xc_end__+0x3342>
  4082e3:	74 3a                	je     40831f <___crt_xc_end__+0x331f>
  4082e5:	74 28                	je     40830f <___crt_xc_end__+0x330f>
  4082e7:	31 2c 32             	xor    %ebp,(%edx,%esi,1)
  4082ea:	29 3d 28 35 2c 37    	sub    %edi,0x372c3528
  4082f0:	29 00                	sub    %eax,(%eax)
  4082f2:	63 6f 6f             	arpl   %bp,0x6f(%edi)
  4082f5:	6b 69 65 5f          	imul   $0x5f,0x65(%ecx),%ebp
  4082f9:	72 65                	jb     408360 <___crt_xc_end__+0x3360>
  4082fb:	61                   	popa   
  4082fc:	64                   	fs
  4082fd:	5f                   	pop    %edi
  4082fe:	66                   	data16
  4082ff:	75 6e                	jne    40836f <___crt_xc_end__+0x336f>
  408301:	63 74 69 6f          	arpl   %si,0x6f(%ecx,%ebp,2)
  408305:	6e                   	outsb  %ds:(%esi),(%dx)
  408306:	5f                   	pop    %edi
  408307:	74 3a                	je     408343 <___crt_xc_end__+0x3343>
  408309:	74 28                	je     408333 <___crt_xc_end__+0x3333>
  40830b:	31 2c 33             	xor    %ebp,(%ebx,%esi,1)
  40830e:	29 3d 28 31 2c 34    	sub    %edi,0x342c3128
  408314:	29 3d 66 28 31 30    	sub    %edi,0x30312866
  40831a:	2c 31                	sub    $0x31,%al
  40831c:	35 29 00 63 6f       	xor    $0x6f630029,%eax
  408321:	6f                   	outsl  %ds:(%esi),(%dx)
  408322:	6b 69 65 5f          	imul   $0x5f,0x65(%ecx),%ebp
  408326:	77 72                	ja     40839a <___crt_xc_end__+0x339a>
  408328:	69 74 65 5f 66 75 6e 	imul   $0x636e7566,0x5f(%ebp,%eiz,2),%esi
  40832f:	63 
  408330:	74 69                	je     40839b <___crt_xc_end__+0x339b>
  408332:	6f                   	outsl  %ds:(%esi),(%dx)
  408333:	6e                   	outsb  %ds:(%esi),(%dx)
  408334:	5f                   	pop    %edi
  408335:	74 3a                	je     408371 <___crt_xc_end__+0x3371>
  408337:	74 28                	je     408361 <___crt_xc_end__+0x3361>
  408339:	31 2c 35 29 3d 28 31 	xor    %ebp,0x31283d29(,%esi,1)
  408340:	2c 36                	sub    $0x36,%al
  408342:	29 3d 66 28 31 30    	sub    %edi,0x30312866
  408348:	2c 31                	sub    $0x31,%al
  40834a:	35 29 00 63 6f       	xor    $0x6f630029,%eax
  40834f:	6f                   	outsl  %ds:(%esi),(%dx)
  408350:	6b 69 65 5f          	imul   $0x5f,0x65(%ecx),%ebp
  408354:	73 65                	jae    4083bb <___crt_xc_end__+0x33bb>
  408356:	65 6b 5f 66 75       	imul   $0x75,%gs:0x66(%edi),%ebx
  40835b:	6e                   	outsb  %ds:(%esi),(%dx)
  40835c:	63 74 69 6f          	arpl   %si,0x6f(%ecx,%ebp,2)
  408360:	6e                   	outsb  %ds:(%esi),(%dx)
  408361:	5f                   	pop    %edi
  408362:	74 3a                	je     40839e <___crt_xc_end__+0x339e>
  408364:	74 28                	je     40838e <___crt_xc_end__+0x338e>
  408366:	31 2c 37             	xor    %ebp,(%edi,%esi,1)
  408369:	29 3d 28 31 2c 38    	sub    %edi,0x382c3128
  40836f:	29 3d 66 28 30 2c    	sub    %edi,0x2c302866
  408375:	31 29                	xor    %ebp,(%ecx)
  408377:	00 63 6f             	add    %ah,0x6f(%ebx)
  40837a:	6f                   	outsl  %ds:(%esi),(%dx)
  40837b:	6b 69 65 5f          	imul   $0x5f,0x65(%ecx),%ebp
  40837f:	63 6c 6f 73          	arpl   %bp,0x73(%edi,%ebp,2)
  408383:	65                   	gs
  408384:	5f                   	pop    %edi
  408385:	66                   	data16
  408386:	75 6e                	jne    4083f6 <___crt_xc_end__+0x33f6>
  408388:	63 74 69 6f          	arpl   %si,0x6f(%ecx,%ebp,2)
  40838c:	6e                   	outsb  %ds:(%esi),(%dx)
  40838d:	5f                   	pop    %edi
  40838e:	74 3a                	je     4083ca <___crt_xc_end__+0x33ca>
  408390:	74 28                	je     4083ba <___crt_xc_end__+0x33ba>
  408392:	31 2c 39             	xor    %ebp,(%ecx,%edi,1)
  408395:	29 3d 28 31 2c 31    	sub    %edi,0x312c3128
  40839b:	30 29                	xor    %ch,(%ecx)
  40839d:	3d 66 28 30 2c       	cmp    $0x2c302866,%eax
  4083a2:	31 29                	xor    %ebp,(%ecx)
  4083a4:	00 63 6f             	add    %ah,0x6f(%ebx)
  4083a7:	6f                   	outsl  %ds:(%esi),(%dx)
  4083a8:	6b 69 65 5f          	imul   $0x5f,0x65(%ecx),%ebp
  4083ac:	69 6f 5f 66 75 6e 63 	imul   $0x636e7566,0x5f(%edi),%ebp
  4083b3:	74 69                	je     40841e <___crt_xc_end__+0x341e>
  4083b5:	6f                   	outsl  %ds:(%esi),(%dx)
  4083b6:	6e                   	outsb  %ds:(%esi),(%dx)
  4083b7:	73 5f                	jae    408418 <___crt_xc_end__+0x3418>
  4083b9:	74 3a                	je     4083f5 <___crt_xc_end__+0x33f5>
  4083bb:	74 28                	je     4083e5 <___crt_xc_end__+0x33e5>
  4083bd:	31 2c 31             	xor    %ebp,(%ecx,%esi,1)
  4083c0:	31 29                	xor    %ebp,(%ecx)
  4083c2:	3d 28 31 2c 31       	cmp    $0x312c3128,%eax
  4083c7:	32 29                	xor    (%ecx),%ch
  4083c9:	3d 73 31 36 72       	cmp    $0x72363173,%eax
  4083ce:	65                   	gs
  4083cf:	61                   	popa   
  4083d0:	64 3a 28             	cmp    %fs:(%eax),%ch
  4083d3:	31 2c 31             	xor    %ebp,(%ecx,%esi,1)
  4083d6:	33 29                	xor    (%ecx),%ebp
  4083d8:	3d 2a 28 31 2c       	cmp    $0x2c31282a,%eax
  4083dd:	33 29                	xor    (%ecx),%ebp
  4083df:	2c 30                	sub    $0x30,%al
  4083e1:	2c 33                	sub    $0x33,%al
  4083e3:	32 3b                	xor    (%ebx),%bh
  4083e5:	77 72                	ja     408459 <___crt_xc_end__+0x3459>
  4083e7:	69 74 65 3a 28 31 2c 	imul   $0x312c3128,0x3a(%ebp,%eiz,2),%esi
  4083ee:	31 
  4083ef:	34 29                	xor    $0x29,%al
  4083f1:	3d 2a 28 31 2c       	cmp    $0x2c31282a,%eax
  4083f6:	35 29 2c 33 32       	xor    $0x32332c29,%eax
  4083fb:	2c 33                	sub    $0x33,%al
  4083fd:	32 3b                	xor    (%ebx),%bh
  4083ff:	73 65                	jae    408466 <___crt_xc_end__+0x3466>
  408401:	65 6b 3a 28          	imul   $0x28,%gs:(%edx),%edi
  408405:	31 2c 31             	xor    %ebp,(%ecx,%esi,1)
  408408:	35 29 3d 2a 28       	xor    $0x282a3d29,%eax
  40840d:	31 2c 37             	xor    %ebp,(%edi,%esi,1)
  408410:	29 2c 36             	sub    %ebp,(%esi,%esi,1)
  408413:	34 2c                	xor    $0x2c,%al
  408415:	33 32                	xor    (%edx),%esi
  408417:	3b 63 6c             	cmp    0x6c(%ebx),%esp
  40841a:	6f                   	outsl  %ds:(%esi),(%dx)
  40841b:	73 65                	jae    408482 <___crt_xc_end__+0x3482>
  40841d:	3a 28                	cmp    (%eax),%ch
  40841f:	31 2c 31             	xor    %ebp,(%ecx,%esi,1)
  408422:	36 29 3d 2a 28 31 2c 	sub    %edi,%ss:0x2c31282a
  408429:	39 29                	cmp    %ebp,(%ecx)
  40842b:	2c 39                	sub    $0x39,%al
  40842d:	36                   	ss
  40842e:	2c 33                	sub    $0x33,%al
  408430:	32 3b                	xor    (%ebx),%bh
  408432:	3b 00                	cmp    (%eax),%eax
  408434:	6d                   	insl   (%dx),%es:(%edi)
  408435:	61                   	popa   
  408436:	69 6e 3a 46 28 30 2c 	imul   $0x2c302846,0x3a(%esi),%ebp
  40843d:	31 29                	xor    %ebp,(%ecx)
  40843f:	00 61 3a             	add    %ah,0x3a(%ecx)
  408442:	28 30                	sub    %dh,(%eax)
  408444:	2c 31                	sub    $0x31,%al
  408446:	29 00                	sub    %eax,(%eax)
  408448:	62 3a                	bound  %edi,(%edx)
  40844a:	28 30                	sub    %dh,(%eax)
  40844c:	2c 31                	sub    $0x31,%al
  40844e:	29 00                	sub    %eax,(%eax)
  408450:	63 3a                	arpl   %di,(%edx)
  408452:	28 30                	sub    %dh,(%eax)
  408454:	2c 31                	sub    $0x31,%al
  408456:	29 00                	sub    %eax,(%eax)
  408458:	64 3a 28             	cmp    %fs:(%eax),%ch
  40845b:	30 2c 31             	xor    %ch,(%ecx,%esi,1)
  40845e:	29 00                	sub    %eax,(%eax)
